---
triple:          'arm64-apple-darwin'
binary-path:     exe1.o
relocations:
  - { offsetInCU: 0x3F, offset: 0x3F, size: 0x8, addend: 0x0, symName: _ans, symObjAddr: 0x55C08, symBinAddr: 0x100010000, symSize: 0x0 }
  - { offsetInCU: 0x8144, offset: 0x8144, size: 0x8, addend: 0x0, symName: __ZNSt3__17advanceB8ue170006IPNS_6vectorIiNS_9allocatorIiEEEEllvEEvRT_T0_, symObjAddr: 0x6F7C, symBinAddr: 0x100009958, symSize: 0x38 }
  - { offsetInCU: 0x81AF, offset: 0x81AF, size: 0x8, addend: 0x0, symName: __ZNSt3__17advanceB8ue170006IPillvEEvRT_T0_, symObjAddr: 0x7684, symBinAddr: 0x10000A060, symSize: 0x38 }
  - { offsetInCU: 0x821A, offset: 0x821A, size: 0x8, addend: 0x0, symName: __ZNSt3__124__put_character_sequenceB8ue170006IcNS_11char_traitsIcEEEERNS_13basic_ostreamIT_T0_EES7_PKS4_m, symObjAddr: 0x7C84, symBinAddr: 0x10000A660, symSize: 0x1F4 }
  - { offsetInCU: 0x9D73, offset: 0x9D73, size: 0x8, addend: 0x0, symName: __ZNSt3__1neB8ue170006ERKNS_14__map_iteratorINS_15__tree_iteratorINS_12__value_typeINS_6vectorINS3_IiNS_9allocatorIiEEEENS4_IS6_EEEEiEEPNS_11__tree_nodeIS9_PvEElEEEESH_, symObjAddr: 0x548, symBinAddr: 0x100002F24, symSize: 0x30 }
  - { offsetInCU: 0x9DB0, offset: 0x9DB0, size: 0x8, addend: 0x0, symName: __ZNSt3__1eqB8ue170006INS_6vectorIiNS_9allocatorIiEEEENS2_IS4_EEEEbRKNS1_IT_T0_EESA_, symObjAddr: 0x5F0, symBinAddr: 0x100002FCC, symSize: 0x9C }
  - { offsetInCU: 0x9E0E, offset: 0x9E0E, size: 0x8, addend: 0x0, symName: __ZNSt3__1lsB8ue170006INS_11char_traitsIcEEEERNS_13basic_ostreamIcT_EES6_PKc, symObjAddr: 0xBF4, symBinAddr: 0x1000035D0, symSize: 0x48 }
  - { offsetInCU: 0x9E54, offset: 0x9E54, size: 0x8, addend: 0x0, symName: __ZNSt3__14endlB8ue170006IcNS_11char_traitsIcEEEERNS_13basic_ostreamIT_T0_EES7_, symObjAddr: 0xC68, symBinAddr: 0x100003644, symSize: 0x58 }
  - { offsetInCU: 0x9E94, offset: 0x9E94, size: 0x8, addend: 0x0, symName: __ZNSt3__122__make_exception_guardB8ue170006INS_6vectorIiNS_9allocatorIiEEE16__destroy_vectorEEENS_28__exception_guard_exceptionsIT_EES7_, symObjAddr: 0xDFC, symBinAddr: 0x1000037D8, symSize: 0x40 }
  - { offsetInCU: 0x9EC9, offset: 0x9EC9, size: 0x8, addend: 0x0, symName: __ZNSt3__119__allocate_at_leastB8ue170006INS_9allocatorIiEEEENS_19__allocation_resultINS_16allocator_traitsIT_E7pointerEEERS5_m, symObjAddr: 0x1204, symBinAddr: 0x100003BE0, symSize: 0x40 }
  - { offsetInCU: 0x9F0C, offset: 0x9F0C, size: 0x8, addend: 0x0, symName: __ZNSt3__13minB8ue170006ImEERKT_S3_S3_, symObjAddr: 0x1340, symBinAddr: 0x100003D1C, symSize: 0x2C }
  - { offsetInCU: 0xA150, offset: 0xA150, size: 0x8, addend: 0x0, symName: __ZNSt3__13minB8ue170006ImNS_6__lessIvvEEEERKT_S5_S5_T0_, symObjAddr: 0x13CC, symBinAddr: 0x100003DA8, symSize: 0x54 }
  - { offsetInCU: 0xA251, offset: 0xA251, size: 0x8, addend: 0x0, symName: __ZNSt3__120__throw_length_errorB8ue170006EPKc, symObjAddr: 0x14A8, symBinAddr: 0x100003E84, symSize: 0x64 }
  - { offsetInCU: 0xA27B, offset: 0xA27B, size: 0x8, addend: 0x0, symName: __ZNSt3__130__libcpp_is_constant_evaluatedB8ue170006Ev, symObjAddr: 0x1644, symBinAddr: 0x100004020, symSize: 0xC }
  - { offsetInCU: 0xA298, offset: 0xA298, size: 0x8, addend: 0x0, symName: __ZNSt3__117__libcpp_allocateB8ue170006Emm, symObjAddr: 0x1650, symBinAddr: 0x10000402C, symSize: 0x28 }
  - { offsetInCU: 0xA2D5, offset: 0xA2D5, size: 0x8, addend: 0x0, symName: __ZNSt3__121__libcpp_operator_newB8ue170006IJmEEEPvDpT_, symObjAddr: 0x1678, symBinAddr: 0x100004054, symSize: 0x24 }
  - { offsetInCU: 0xA30E, offset: 0xA30E, size: 0x8, addend: 0x0, symName: __ZNSt3__112__to_addressB8ue170006IiEEPT_S2_, symObjAddr: 0x1794, symBinAddr: 0x100004170, symSize: 0x14 }
  - { offsetInCU: 0xA343, offset: 0xA343, size: 0x8, addend: 0x0, symName: __ZNSt3__119__libcpp_deallocateB8ue170006EPvmm, symObjAddr: 0x1C58, symBinAddr: 0x100004634, symSize: 0x30 }
  - { offsetInCU: 0xA38B, offset: 0xA38B, size: 0x8, addend: 0x0, symName: __ZNSt3__127__do_deallocate_handle_sizeB8ue170006IJEEEvPvmDpT_, symObjAddr: 0x1C88, symBinAddr: 0x100004664, symSize: 0x28 }
  - { offsetInCU: 0xA3C9, offset: 0xA3C9, size: 0x8, addend: 0x0, symName: __ZNSt3__124__libcpp_operator_deleteB8ue170006IJPvEEEvDpT_, symObjAddr: 0x1CB0, symBinAddr: 0x10000468C, symSize: 0x24 }
  - { offsetInCU: 0xA3FE, offset: 0xA3FE, size: 0x8, addend: 0x0, symName: __ZNSt3__122__make_exception_guardB8ue170006INS_6vectorINS1_IiNS_9allocatorIiEEEENS2_IS4_EEE16__destroy_vectorEEENS_28__exception_guard_exceptionsIT_EES9_, symObjAddr: 0x1E30, symBinAddr: 0x10000480C, symSize: 0x40 }
  - { offsetInCU: 0xA433, offset: 0xA433, size: 0x8, addend: 0x0, symName: __ZNSt3__119__allocate_at_leastB8ue170006INS_9allocatorINS_6vectorIiNS1_IiEEEEEEEENS_19__allocation_resultINS_16allocator_traitsIT_E7pointerEEERS8_m, symObjAddr: 0x2248, symBinAddr: 0x100004C24, symSize: 0x40 }
  - { offsetInCU: 0xA476, offset: 0xA476, size: 0x8, addend: 0x0, symName: __ZNSt3__112__to_addressB8ue170006INS_6vectorIiNS_9allocatorIiEEEEEEPT_S6_, symObjAddr: 0x25C0, symBinAddr: 0x100004F9C, symSize: 0x14 }
  - { offsetInCU: 0xA4AB, offset: 0xA4AB, size: 0x8, addend: 0x0, symName: __ZNSt3__130__uninitialized_allocator_copyB8ue170006INS_9allocatorIiEEPiS3_S3_EET2_RT_T0_T1_S4_, symObjAddr: 0x2A10, symBinAddr: 0x1000053EC, symSize: 0x80 }
  - { offsetInCU: 0xA548, offset: 0xA548, size: 0x8, addend: 0x0, symName: __ZNSt3__114__unwrap_rangeB8ue170006IPiS1_EENS_4pairIT0_S3_EET_S5_, symObjAddr: 0x2A90, symBinAddr: 0x10000546C, symSize: 0x60 }
  - { offsetInCU: 0xA594, offset: 0xA594, size: 0x8, addend: 0x0, symName: __ZNSt3__135__uninitialized_allocator_copy_implB8ue170006INS_9allocatorIiEEPiS3_S3_EET2_RT_T0_T1_S4_, symObjAddr: 0x2AF0, symBinAddr: 0x1000054CC, symSize: 0xFC }
  - { offsetInCU: 0xA632, offset: 0xA632, size: 0x8, addend: 0x0, symName: __ZNSt3__113__unwrap_iterB8ue170006IPiNS_18__unwrap_iter_implIS1_Lb1EEELi0EEEDTclsrT0_8__unwrapclsr3stdE7declvalIT_EEEES5_, symObjAddr: 0x2BEC, symBinAddr: 0x1000055C8, symSize: 0x24 }
  - { offsetInCU: 0xA676, offset: 0xA676, size: 0x8, addend: 0x0, symName: __ZNSt3__113__rewrap_iterB8ue170006IPiS1_NS_18__unwrap_iter_implIS1_Lb1EEEEET_S4_T0_, symObjAddr: 0x2C10, symBinAddr: 0x1000055EC, symSize: 0x50 }
  - { offsetInCU: 0xA6CB, offset: 0xA6CB, size: 0x8, addend: 0x0, symName: __ZNSt3__19make_pairB8ue170006IPiS1_EENS_4pairINS_18__unwrap_ref_decayIT_E4typeENS3_IT0_E4typeEEEOS4_OS7_, symObjAddr: 0x2C60, symBinAddr: 0x10000563C, symSize: 0x38 }
  - { offsetInCU: 0xA7C7, offset: 0xA7C7, size: 0x8, addend: 0x0, symName: __ZNSt3__122__make_exception_guardB8ue170006INS_29_AllocatorDestroyRangeReverseINS_9allocatorIiEEPiEEEENS_28__exception_guard_exceptionsIT_EES7_, symObjAddr: 0x2D08, symBinAddr: 0x1000056E4, symSize: 0x4C }
  - { offsetInCU: 0xA7FD, offset: 0xA7FD, size: 0x8, addend: 0x0, symName: __ZNSt3__119__allocator_destroyB8ue170006INS_9allocatorIiEENS_16reverse_iteratorIPiEES5_EEvRT_T0_T1_, symObjAddr: 0x2F88, symBinAddr: 0x100005964, symSize: 0x70 }
  - { offsetInCU: 0xA860, offset: 0xA860, size: 0x8, addend: 0x0, symName: __ZNSt3__1neB8ue170006IPiS1_EEbRKNS_16reverse_iteratorIT_EERKNS2_IT0_EE, symObjAddr: 0x302C, symBinAddr: 0x100005A08, symSize: 0x48 }
  - { offsetInCU: 0xA8AC, offset: 0xA8AC, size: 0x8, addend: 0x0, symName: __ZNSt3__112__to_addressB8ue170006INS_16reverse_iteratorIPiEEvEEu7__decayIDTclsr19__to_address_helperIT_EE6__callclsr3stdE7declvalIRKS4_EEEEES6_, symObjAddr: 0x3074, symBinAddr: 0x100005A50, symSize: 0x24 }
  - { offsetInCU: 0xA991, offset: 0xA991, size: 0x8, addend: 0x0, symName: __ZNSt3__1neB8ue170006ERKNS_15__tree_iteratorINS_12__value_typeINS_6vectorINS2_IiNS_9allocatorIiEEEENS3_IS5_EEEEiEEPNS_11__tree_nodeIS8_PvEElEESF_, symObjAddr: 0x3F24, symBinAddr: 0x100006900, symSize: 0x34 }
  - { offsetInCU: 0xA9CE, offset: 0xA9CE, size: 0x8, addend: 0x0, symName: __ZNSt3__1ltB8ue170006INS_6vectorIiNS_9allocatorIiEEEENS2_IS4_EEEEbRKNS1_IT_T0_EESA_, symObjAddr: 0x40F0, symBinAddr: 0x100006ACC, symSize: 0x68 }
  - { offsetInCU: 0xAA1D, offset: 0xAA1D, size: 0x8, addend: 0x0, symName: __ZNSt3__123lexicographical_compareB8ue170006INS_11__wrap_iterIPKNS_6vectorIiNS_9allocatorIiEEEEEES8_EEbT_S9_T0_SA_, symObjAddr: 0x4158, symBinAddr: 0x100006B34, symSize: 0x60 }
  - { offsetInCU: 0xAA85, offset: 0xAA85, size: 0x8, addend: 0x0, symName: __ZNSt3__123lexicographical_compareB8ue170006INS_11__wrap_iterIPKNS_6vectorIiNS_9allocatorIiEEEEEES8_NS_6__lessIvvEEEEbT_SB_T0_SC_T1_, symObjAddr: 0x4218, symBinAddr: 0x100006BF4, symSize: 0x64 }
  - { offsetInCU: 0xAB04, offset: 0xAB04, size: 0x8, addend: 0x0, symName: __ZNSt3__125__lexicographical_compareB8ue170006IRNS_6__lessIvvEENS_11__wrap_iterIPKNS_6vectorIiNS_9allocatorIiEEEEEESB_EEbT0_SC_T1_SD_T_, symObjAddr: 0x427C, symBinAddr: 0x100006C58, symSize: 0x11C }
  - { offsetInCU: 0xAB83, offset: 0xAB83, size: 0x8, addend: 0x0, symName: __ZNSt3__1neB8ue170006IPKNS_6vectorIiNS_9allocatorIiEEEEEEbRKNS_11__wrap_iterIT_EESB_, symObjAddr: 0x4398, symBinAddr: 0x100006D74, symSize: 0x34 }
  - { offsetInCU: 0xABC6, offset: 0xABC6, size: 0x8, addend: 0x0, symName: __ZNSt3__1eqB8ue170006IPKNS_6vectorIiNS_9allocatorIiEEEEEEbRKNS_11__wrap_iterIT_EESB_, symObjAddr: 0x43CC, symBinAddr: 0x100006DA8, symSize: 0x48 }
  - { offsetInCU: 0xAC09, offset: 0xAC09, size: 0x8, addend: 0x0, symName: __ZNSt3__1ltB8ue170006IiNS_9allocatorIiEEEEbRKNS_6vectorIT_T0_EES8_, symObjAddr: 0x4498, symBinAddr: 0x100006E74, symSize: 0x68 }
  - { offsetInCU: 0xAC58, offset: 0xAC58, size: 0x8, addend: 0x0, symName: __ZNSt3__123lexicographical_compareB8ue170006INS_11__wrap_iterIPKiEES4_EEbT_S5_T0_S6_, symObjAddr: 0x4500, symBinAddr: 0x100006EDC, symSize: 0x60 }
  - { offsetInCU: 0xACC0, offset: 0xACC0, size: 0x8, addend: 0x0, symName: __ZNSt3__123lexicographical_compareB8ue170006INS_11__wrap_iterIPKiEES4_NS_6__lessIvvEEEEbT_S7_T0_S8_T1_, symObjAddr: 0x45C0, symBinAddr: 0x100006F9C, symSize: 0x64 }
  - { offsetInCU: 0xAD3F, offset: 0xAD3F, size: 0x8, addend: 0x0, symName: __ZNSt3__125__lexicographical_compareB8ue170006IRNS_6__lessIvvEENS_11__wrap_iterIPKiEES7_EEbT0_S8_T1_S9_T_, symObjAddr: 0x4624, symBinAddr: 0x100007000, symSize: 0x11C }
  - { offsetInCU: 0xADBE, offset: 0xADBE, size: 0x8, addend: 0x0, symName: __ZNSt3__1neB8ue170006IPKiEEbRKNS_11__wrap_iterIT_EES7_, symObjAddr: 0x4740, symBinAddr: 0x10000711C, symSize: 0x34 }
  - { offsetInCU: 0xAE01, offset: 0xAE01, size: 0x8, addend: 0x0, symName: __ZNSt3__1eqB8ue170006IPKiEEbRKNS_11__wrap_iterIT_EES7_, symObjAddr: 0x4774, symBinAddr: 0x100007150, symSize: 0x48 }
  - { offsetInCU: 0xAE44, offset: 0xAE44, size: 0x8, addend: 0x0, symName: __ZNSt3__1eqB8ue170006ERKNS_15__tree_iteratorINS_12__value_typeINS_6vectorINS2_IiNS_9allocatorIiEEEENS3_IS5_EEEEiEEPNS_11__tree_nodeIS8_PvEElEESF_, symObjAddr: 0x4968, symBinAddr: 0x100007344, symSize: 0x30 }
  - { offsetInCU: 0xAE81, offset: 0xAE81, size: 0x8, addend: 0x0, symName: __ZNSt3__15equalB8ue170006INS_11__wrap_iterIPKNS_6vectorIiNS_9allocatorIiEEEEEES8_EEbT_S9_T0_, symObjAddr: 0x4A08, symBinAddr: 0x1000073E4, symSize: 0x50 }
  - { offsetInCU: 0xAEDB, offset: 0xAEDB, size: 0x8, addend: 0x0, symName: __ZNSt3__15equalB8ue170006INS_11__wrap_iterIPKNS_6vectorIiNS_9allocatorIiEEEEEES8_NS_10__equal_toEEEbT_SA_T0_T1_, symObjAddr: 0x4A58, symBinAddr: 0x100007434, symSize: 0x74 }
  - { offsetInCU: 0xAF4C, offset: 0xAF4C, size: 0x8, addend: 0x0, symName: __ZNSt3__117__equal_iter_implB8ue170006IPKNS_6vectorIiNS_9allocatorIiEEEES6_NS_10__equal_toEEEbT_S8_T0_RT1_, symObjAddr: 0x4ACC, symBinAddr: 0x1000074A8, symSize: 0xAC }
  - { offsetInCU: 0xAFBD, offset: 0xAFBD, size: 0x8, addend: 0x0, symName: __ZNSt3__113__unwrap_iterB8ue170006INS_11__wrap_iterIPKNS_6vectorIiNS_9allocatorIiEEEEEENS_18__unwrap_iter_implIS8_Lb1EEELi0EEEDTclsrT0_8__unwrapclsr3stdE7declvalIT_EEEESC_, symObjAddr: 0x4B78, symBinAddr: 0x100007554, symSize: 0x2C }
  - { offsetInCU: 0xB03C, offset: 0xB03C, size: 0x8, addend: 0x0, symName: __ZNSt3__1eqB8ue170006IiNS_9allocatorIiEEEEbRKNS_6vectorIT_T0_EES8_, symObjAddr: 0x4BD8, symBinAddr: 0x1000075B4, symSize: 0x9C }
  - { offsetInCU: 0xB09A, offset: 0xB09A, size: 0x8, addend: 0x0, symName: __ZNSt3__15equalB8ue170006INS_11__wrap_iterIPKiEES4_EEbT_S5_T0_, symObjAddr: 0x4C74, symBinAddr: 0x100007650, symSize: 0x50 }
  - { offsetInCU: 0xB0F4, offset: 0xB0F4, size: 0x8, addend: 0x0, symName: __ZNSt3__15equalB8ue170006INS_11__wrap_iterIPKiEES4_NS_10__equal_toEEEbT_S6_T0_T1_, symObjAddr: 0x4CC4, symBinAddr: 0x1000076A0, symSize: 0x74 }
  - { offsetInCU: 0xB165, offset: 0xB165, size: 0x8, addend: 0x0, symName: __ZNSt3__117__equal_iter_implB8ue170006IKiS1_NS_10__equal_toELi0EEEbPT_S4_PT0_RT1_, symObjAddr: 0x4D38, symBinAddr: 0x100007714, symSize: 0x4C }
  - { offsetInCU: 0xB1D8, offset: 0xB1D8, size: 0x8, addend: 0x0, symName: __ZNSt3__113__unwrap_iterB8ue170006INS_11__wrap_iterIPKiEENS_18__unwrap_iter_implIS4_Lb1EEELi0EEEDTclsrT0_8__unwrapclsr3stdE7declvalIT_EEEES8_, symObjAddr: 0x4D84, symBinAddr: 0x100007760, symSize: 0x2C }
  - { offsetInCU: 0xB21C, offset: 0xB21C, size: 0x8, addend: 0x0, symName: __ZNSt3__124__constexpr_memcmp_equalB8ue170006IiiEEbPKT_PKT0_NS_15__element_countE, symObjAddr: 0x4DB0, symBinAddr: 0x10000778C, symSize: 0xF4 }
  - { offsetInCU: 0xB2D7, offset: 0xB2D7, size: 0x8, addend: 0x0, symName: __ZNSt3__112__to_addressB8ue170006INS_11__wrap_iterIPKiEEvEEu7__decayIDTclsr19__to_address_helperIT_EE6__callclsr3stdE7declvalIRKS5_EEEEES7_, symObjAddr: 0x4ECC, symBinAddr: 0x1000078A8, symSize: 0x24 }
  - { offsetInCU: 0xB3B2, offset: 0xB3B2, size: 0x8, addend: 0x0, symName: __ZNSt3__112__to_addressB8ue170006IKiEEPT_S3_, symObjAddr: 0x4F4C, symBinAddr: 0x100007928, symSize: 0x14 }
  - { offsetInCU: 0xB43A, offset: 0xB43A, size: 0x8, addend: 0x0, symName: __ZNSt3__112__to_addressB8ue170006INS_11__wrap_iterIPKNS_6vectorIiNS_9allocatorIiEEEEEEvEEu7__decayIDTclsr19__to_address_helperIT_EE6__callclsr3stdE7declvalIRKS9_EEEEESB_, symObjAddr: 0x4F88, symBinAddr: 0x100007964, symSize: 0x24 }
  - { offsetInCU: 0xB515, offset: 0xB515, size: 0x8, addend: 0x0, symName: __ZNSt3__112__to_addressB8ue170006IKNS_6vectorIiNS_9allocatorIiEEEEEEPT_S7_, symObjAddr: 0x5008, symBinAddr: 0x1000079E4, symSize: 0x14 }
  - { offsetInCU: 0xB568, offset: 0xB568, size: 0x8, addend: 0x0, symName: __ZNSt3__130__uninitialized_allocator_copyB8ue170006INS_9allocatorINS_6vectorIiNS1_IiEEEEEEPS4_S6_S6_EET2_RT_T0_T1_S7_, symObjAddr: 0x5AB4, symBinAddr: 0x100008490, symSize: 0x80 }
  - { offsetInCU: 0xB605, offset: 0xB605, size: 0x8, addend: 0x0, symName: __ZNSt3__114__unwrap_rangeB8ue170006IPNS_6vectorIiNS_9allocatorIiEEEES5_EENS_4pairIT0_S7_EET_S9_, symObjAddr: 0x5B34, symBinAddr: 0x100008510, symSize: 0x60 }
  - { offsetInCU: 0xB651, offset: 0xB651, size: 0x8, addend: 0x0, symName: __ZNSt3__135__uninitialized_allocator_copy_implB8ue170006INS_9allocatorINS_6vectorIiNS1_IiEEEEEEPS4_S6_S6_EET2_RT_T0_T1_S7_, symObjAddr: 0x5B94, symBinAddr: 0x100008570, symSize: 0xFC }
  - { offsetInCU: 0xB6EF, offset: 0xB6EF, size: 0x8, addend: 0x0, symName: __ZNSt3__113__unwrap_iterB8ue170006IPNS_6vectorIiNS_9allocatorIiEEEENS_18__unwrap_iter_implIS5_Lb1EEELi0EEEDTclsrT0_8__unwrapclsr3stdE7declvalIT_EEEES9_, symObjAddr: 0x5C90, symBinAddr: 0x10000866C, symSize: 0x24 }
  - { offsetInCU: 0xB733, offset: 0xB733, size: 0x8, addend: 0x0, symName: __ZNSt3__113__rewrap_iterB8ue170006IPNS_6vectorIiNS_9allocatorIiEEEES5_NS_18__unwrap_iter_implIS5_Lb1EEEEET_S8_T0_, symObjAddr: 0x5CB4, symBinAddr: 0x100008690, symSize: 0x50 }
  - { offsetInCU: 0xB788, offset: 0xB788, size: 0x8, addend: 0x0, symName: __ZNSt3__19make_pairB8ue170006IPNS_6vectorIiNS_9allocatorIiEEEES5_EENS_4pairINS_18__unwrap_ref_decayIT_E4typeENS7_IT0_E4typeEEEOS8_OSB_, symObjAddr: 0x5D04, symBinAddr: 0x1000086E0, symSize: 0x38 }
  - { offsetInCU: 0xB884, offset: 0xB884, size: 0x8, addend: 0x0, symName: __ZNSt3__122__make_exception_guardB8ue170006INS_29_AllocatorDestroyRangeReverseINS_9allocatorINS_6vectorIiNS2_IiEEEEEEPS5_EEEENS_28__exception_guard_exceptionsIT_EESA_, symObjAddr: 0x5DAC, symBinAddr: 0x100008788, symSize: 0x4C }
  - { offsetInCU: 0xB8BA, offset: 0xB8BA, size: 0x8, addend: 0x0, symName: __ZNSt3__119__allocator_destroyB8ue170006INS_9allocatorINS_6vectorIiNS1_IiEEEEEENS_16reverse_iteratorIPS4_EES8_EEvRT_T0_T1_, symObjAddr: 0x6034, symBinAddr: 0x100008A10, symSize: 0x70 }
  - { offsetInCU: 0xB91D, offset: 0xB91D, size: 0x8, addend: 0x0, symName: __ZNSt3__1neB8ue170006IPNS_6vectorIiNS_9allocatorIiEEEES5_EEbRKNS_16reverse_iteratorIT_EERKNS6_IT0_EE, symObjAddr: 0x60D8, symBinAddr: 0x100008AB4, symSize: 0x48 }
  - { offsetInCU: 0xB969, offset: 0xB969, size: 0x8, addend: 0x0, symName: __ZNSt3__112__to_addressB8ue170006INS_16reverse_iteratorIPNS_6vectorIiNS_9allocatorIiEEEEEEvEEu7__decayIDTclsr19__to_address_helperIT_EE6__callclsr3stdE7declvalIRKS8_EEEEESA_, symObjAddr: 0x6120, symBinAddr: 0x100008AFC, symSize: 0x24 }
  - { offsetInCU: 0xBA1B, offset: 0xBA1B, size: 0x8, addend: 0x0, symName: __ZNSt3__127__tree_balance_after_insertB8ue170006IPNS_16__tree_node_baseIPvEEEEvT_S5_, symObjAddr: 0x6348, symBinAddr: 0x100008D24, symSize: 0x340 }
  - { offsetInCU: 0xBA8F, offset: 0xBA8F, size: 0x8, addend: 0x0, symName: __ZNSt3__120__tree_is_left_childB8ue170006IPNS_16__tree_node_baseIPvEEEEbT_, symObjAddr: 0x66C8, symBinAddr: 0x1000090A4, symSize: 0x2C }
  - { offsetInCU: 0xBAC4, offset: 0xBAC4, size: 0x8, addend: 0x0, symName: __ZNSt3__118__tree_left_rotateB8ue170006IPNS_16__tree_node_baseIPvEEEEvT_, symObjAddr: 0x66F4, symBinAddr: 0x1000090D0, symSize: 0xEC }
  - { offsetInCU: 0xBB06, offset: 0xBB06, size: 0x8, addend: 0x0, symName: __ZNSt3__119__tree_right_rotateB8ue170006IPNS_16__tree_node_baseIPvEEEEvT_, symObjAddr: 0x67E0, symBinAddr: 0x1000091BC, symSize: 0xCC }
  - { offsetInCU: 0xBB48, offset: 0xBB48, size: 0x8, addend: 0x0, symName: __ZNSt3__18distanceB8ue170006IPNS_6vectorIiNS_9allocatorIiEEEEEENS_15iterator_traitsIT_E15difference_typeES7_S7_, symObjAddr: 0x6D04, symBinAddr: 0x1000096E0, symSize: 0x2C }
  - { offsetInCU: 0xBB8B, offset: 0xBB8B, size: 0x8, addend: 0x0, symName: __ZNSt3__14nextB8ue170006IPNS_6vectorIiNS_9allocatorIiEEEEEENS_9enable_ifIXsr29__has_input_iterator_categoryIT_EE5valueES7_E4typeES7_NS_15iterator_traitsIS7_E15difference_typeE, symObjAddr: 0x6D30, symBinAddr: 0x10000970C, symSize: 0x34 }
  - { offsetInCU: 0xBBCE, offset: 0xBBCE, size: 0x8, addend: 0x0, symName: __ZNSt3__14copyB8ue170006IPNS_6vectorIiNS_9allocatorIiEEEES5_EET0_T_S7_S6_, symObjAddr: 0x6D64, symBinAddr: 0x100009740, symSize: 0x40 }
  - { offsetInCU: 0xBC28, offset: 0xBC28, size: 0x8, addend: 0x0, symName: __ZNSt3__16__copyB8ue170006INS_17_ClassicAlgPolicyEPNS_6vectorIiNS_9allocatorIiEEEES6_S6_EENS_4pairIT0_T2_EES8_T1_S9_, symObjAddr: 0x6DA4, symBinAddr: 0x100009780, symSize: 0x44 }
  - { offsetInCU: 0xBC94, offset: 0xBC94, size: 0x8, addend: 0x0, symName: __ZNSt3__121__convert_to_integralB8ue170006El, symObjAddr: 0x6FB4, symBinAddr: 0x100009990, symSize: 0x14 }
  - { offsetInCU: 0xBCC0, offset: 0xBCC0, size: 0x8, addend: 0x0, symName: __ZNSt3__19__advanceB8ue170006IPNS_6vectorIiNS_9allocatorIiEEEEEEvRT_NS_15iterator_traitsIS6_E15difference_typeENS_26random_access_iterator_tagE, symObjAddr: 0x6FC8, symBinAddr: 0x1000099A4, symSize: 0x30 }
  - { offsetInCU: 0xBD09, offset: 0xBD09, size: 0x8, addend: 0x0, symName: __ZNSt3__123__dispatch_copy_or_moveB8ue170006INS_17_ClassicAlgPolicyENS_11__copy_loopIS1_EENS_14__copy_trivialEPNS_6vectorIiNS_9allocatorIiEEEES9_S9_EENS_4pairIT2_T4_EESB_T3_SC_, symObjAddr: 0x6FF8, symBinAddr: 0x1000099D4, symSize: 0x44 }
  - { offsetInCU: 0xBD87, offset: 0xBD87, size: 0x8, addend: 0x0, symName: __ZNSt3__121__unwrap_and_dispatchB8ue170006INS_10__overloadINS_11__copy_loopINS_17_ClassicAlgPolicyEEENS_14__copy_trivialEEEPNS_6vectorIiNS_9allocatorIiEEEESB_SB_Li0EEENS_4pairIT0_T2_EESD_T1_SE_, symObjAddr: 0x703C, symBinAddr: 0x100009A18, symSize: 0xB4 }
  - { offsetInCU: 0xBE70, offset: 0xBE70, size: 0x8, addend: 0x0, symName: __ZNSt3__114__rewrap_rangeB8ue170006IPNS_6vectorIiNS_9allocatorIiEEEES5_EET_S6_T0_, symObjAddr: 0x7178, symBinAddr: 0x100009B54, symSize: 0x2C }
  - { offsetInCU: 0xBEBC, offset: 0xBEBC, size: 0x8, addend: 0x0, symName: __ZNSt3__18distanceB8ue170006IPiEENS_15iterator_traitsIT_E15difference_typeES3_S3_, symObjAddr: 0x740C, symBinAddr: 0x100009DE8, symSize: 0x2C }
  - { offsetInCU: 0xBEFF, offset: 0xBEFF, size: 0x8, addend: 0x0, symName: __ZNSt3__14nextB8ue170006IPiEENS_9enable_ifIXsr29__has_input_iterator_categoryIT_EE5valueES3_E4typeES3_NS_15iterator_traitsIS3_E15difference_typeE, symObjAddr: 0x7438, symBinAddr: 0x100009E14, symSize: 0x34 }
  - { offsetInCU: 0xBF42, offset: 0xBF42, size: 0x8, addend: 0x0, symName: __ZNSt3__14copyB8ue170006IPiS1_EET0_T_S3_S2_, symObjAddr: 0x746C, symBinAddr: 0x100009E48, symSize: 0x40 }
  - { offsetInCU: 0xBF9C, offset: 0xBF9C, size: 0x8, addend: 0x0, symName: __ZNSt3__16__copyB8ue170006INS_17_ClassicAlgPolicyEPiS2_S2_EENS_4pairIT0_T2_EES4_T1_S5_, symObjAddr: 0x74AC, symBinAddr: 0x100009E88, symSize: 0x44 }
  - { offsetInCU: 0xC008, offset: 0xC008, size: 0x8, addend: 0x0, symName: __ZNSt3__19__advanceB8ue170006IPiEEvRT_NS_15iterator_traitsIS2_E15difference_typeENS_26random_access_iterator_tagE, symObjAddr: 0x76BC, symBinAddr: 0x10000A098, symSize: 0x28 }
  - { offsetInCU: 0xC051, offset: 0xC051, size: 0x8, addend: 0x0, symName: __ZNSt3__123__dispatch_copy_or_moveB8ue170006INS_17_ClassicAlgPolicyENS_11__copy_loopIS1_EENS_14__copy_trivialEPiS5_S5_EENS_4pairIT2_T4_EES7_T3_S8_, symObjAddr: 0x76E4, symBinAddr: 0x10000A0C0, symSize: 0x44 }
  - { offsetInCU: 0xC0CF, offset: 0xC0CF, size: 0x8, addend: 0x0, symName: __ZNSt3__121__unwrap_and_dispatchB8ue170006INS_10__overloadINS_11__copy_loopINS_17_ClassicAlgPolicyEEENS_14__copy_trivialEEEPiS7_S7_Li0EEENS_4pairIT0_T2_EES9_T1_SA_, symObjAddr: 0x7728, symBinAddr: 0x10000A104, symSize: 0xB4 }
  - { offsetInCU: 0xC1A3, offset: 0xC1A3, size: 0x8, addend: 0x0, symName: __ZNSt3__114__rewrap_rangeB8ue170006IPiS1_EET_S2_T0_, symObjAddr: 0x7824, symBinAddr: 0x10000A200, symSize: 0x2C }
  - { offsetInCU: 0xC1EF, offset: 0xC1EF, size: 0x8, addend: 0x0, symName: __ZNSt3__119__copy_trivial_implB8ue170006IiiEENS_4pairIPT_PT0_EES3_S3_S5_, symObjAddr: 0x7850, symBinAddr: 0x10000A22C, symSize: 0x80 }
  - { offsetInCU: 0xC257, offset: 0xC257, size: 0x8, addend: 0x0, symName: __ZNSt3__119__constexpr_memmoveB8ue170006IiiLi0EEEPT_S2_PT0_NS_15__element_countE, symObjAddr: 0x78D0, symBinAddr: 0x10000A2AC, symSize: 0xA0 }
  - { offsetInCU: 0xC2C5, offset: 0xC2C5, size: 0x8, addend: 0x0, symName: __ZNSt3__19make_pairB8ue170006IRPiS1_EENS_4pairINS_18__unwrap_ref_decayIT_E4typeENS4_IT0_E4typeEEEOS5_OS8_, symObjAddr: 0x7970, symBinAddr: 0x10000A34C, symSize: 0x38 }
  - { offsetInCU: 0xC314, offset: 0xC314, size: 0x8, addend: 0x0, symName: __ZNSt3__13maxB8ue170006ImEERKT_S3_S3_, symObjAddr: 0x7AA0, symBinAddr: 0x10000A47C, symSize: 0x2C }
  - { offsetInCU: 0xC357, offset: 0xC357, size: 0x8, addend: 0x0, symName: __ZNSt3__13maxB8ue170006ImNS_6__lessIvvEEEERKT_S5_S5_T0_, symObjAddr: 0x7ACC, symBinAddr: 0x10000A4A8, symSize: 0x54 }
  - { offsetInCU: 0xC3B1, offset: 0xC3B1, size: 0x8, addend: 0x0, symName: __ZNSt3__110__distanceB8ue170006IPiEENS_15iterator_traitsIT_E15difference_typeES3_S3_NS_26random_access_iterator_tagE, symObjAddr: 0x7B20, symBinAddr: 0x10000A4FC, symSize: 0x28 }
  - { offsetInCU: 0xC3FE, offset: 0xC3FE, size: 0x8, addend: 0x0, symName: __ZNSt3__110__distanceB8ue170006IPNS_6vectorIiNS_9allocatorIiEEEEEENS_15iterator_traitsIT_E15difference_typeES7_S7_NS_26random_access_iterator_tagE, symObjAddr: 0x7C5C, symBinAddr: 0x10000A638, symSize: 0x28 }
  - { offsetInCU: 0xC44B, offset: 0xC44B, size: 0x8, addend: 0x0, symName: __ZNSt3__116__pad_and_outputB8ue170006IcNS_11char_traitsIcEEEENS_19ostreambuf_iteratorIT_T0_EES6_PKS4_S8_S8_RNS_8ios_baseES4_, symObjAddr: 0x7EDC, symBinAddr: 0x10000A8B8, symSize: 0x248 }
  - { offsetInCU: 0xC51A, offset: 0xC51A, size: 0x8, addend: 0x0, symName: __ZNSt3__112__to_addressB8ue170006IKcEEPT_S3_, symObjAddr: 0x844C, symBinAddr: 0x10000AE28, symSize: 0x14 }
  - { offsetInCU: 0xC582, offset: 0xC582, size: 0x8, addend: 0x0, symName: __ZNSt3__19use_facetB8ue170006INS_5ctypeIcEEEERKT_RKNS_6localeE, symObjAddr: 0x8724, symBinAddr: 0x10000B100, symSize: 0x2C }
  - { offsetInCU: 0xCA4F, offset: 0xCA4F, size: 0x8, addend: 0x0, symName: __ZNSt3__118__constexpr_strlenB8ue170006EPKc, symObjAddr: 0x87BC, symBinAddr: 0x10000B198, symSize: 0x24 }
  - { offsetInCU: 0xCCBC, offset: 0xCCBC, size: 0x8, addend: 0x0, symName: __ZSt28__throw_bad_array_new_lengthB8ue170006v, symObjAddr: 0x1610, symBinAddr: 0x100003FEC, symSize: 0x34 }
  - { offsetInCU: 0xCF42, offset: 0xCF42, size: 0x8, addend: 0x0, symName: _b, symObjAddr: 0x55C20, symBinAddr: 0x100010018, symSize: 0x0 }
  - { offsetInCU: 0xCF57, offset: 0xCF57, size: 0x8, addend: 0x0, symName: _mp, symObjAddr: 0x55C28, symBinAddr: 0x100010020, symSize: 0x0 }
  - { offsetInCU: 0xD306, offset: 0xD306, size: 0x8, addend: 0x0, symName: _temp, symObjAddr: 0x55C40, symBinAddr: 0x100010038, symSize: 0x0 }
  - { offsetInCU: 0xFA88, offset: 0xFA88, size: 0x8, addend: 0x0, symName: __ZNSt3__16vectorIiNS_9allocatorIiEEEC1Em, symObjAddr: 0x0, symBinAddr: 0x1000029DC, symSize: 0x34 }
  - { offsetInCU: 0xFAC3, offset: 0xFAC3, size: 0x8, addend: 0x0, symName: __ZNSt3__16vectorINS0_IiNS_9allocatorIiEEEENS1_IS3_EEEC1EmRKS3_, symObjAddr: 0x34, symBinAddr: 0x100002A10, symSize: 0x3C }
  - { offsetInCU: 0xFB0D, offset: 0xFB0D, size: 0x8, addend: 0x0, symName: __ZNSt3__16vectorIiNS_9allocatorIiEEED1B8ue170006Ev, symObjAddr: 0x70, symBinAddr: 0x100002A4C, symSize: 0x2C }
  - { offsetInCU: 0xFB37, offset: 0xFB37, size: 0x8, addend: 0x0, symName: __ZNSt3__16vectorINS0_IiNS_9allocatorIiEEEENS1_IS3_EEED1B8ue170006Ev, symObjAddr: 0xA8, symBinAddr: 0x100002A84, symSize: 0x2C }
  - { offsetInCU: 0xFB61, offset: 0xFB61, size: 0x8, addend: 0x0, symName: __ZNSt3__13mapINS_6vectorINS1_IiNS_9allocatorIiEEEENS2_IS4_EEEEiNS_4lessIS6_EENS2_INS_4pairIKS6_iEEEEEC1B8ue170006Ev, symObjAddr: 0xD4, symBinAddr: 0x100002AB0, symSize: 0x2C }
  - { offsetInCU: 0xFB8B, offset: 0xFB8B, size: 0x8, addend: 0x0, symName: __ZNSt3__13mapINS_6vectorINS1_IiNS_9allocatorIiEEEENS2_IS4_EEEEiNS_4lessIS6_EENS2_INS_4pairIKS6_iEEEEED1B8ue170006Ev, symObjAddr: 0x100, symBinAddr: 0x100002ADC, symSize: 0x2C }
  - { offsetInCU: 0xFBB5, offset: 0xFBB5, size: 0x8, addend: 0x0, symName: __ZNSt3__16vectorINS0_IiNS_9allocatorIiEEEENS1_IS3_EEEC1B8ue170006Ev, symObjAddr: 0x12C, symBinAddr: 0x100002B08, symSize: 0x2C }
  - { offsetInCU: 0xFBDE, offset: 0xFBDE, size: 0x8, addend: 0x0, symName: __Z4swapRNSt3__16vectorINS0_IiNS_9allocatorIiEEEENS1_IS3_EEEEiiii, symObjAddr: 0x158, symBinAddr: 0x100002B34, symSize: 0xA4 }
  - { offsetInCU: 0xFC4D, offset: 0xFC4D, size: 0x8, addend: 0x0, symName: __ZNSt3__16vectorINS0_IiNS_9allocatorIiEEEENS1_IS3_EEEixB8ue170006Em, symObjAddr: 0x1FC, symBinAddr: 0x100002BD8, symSize: 0x2C }
  - { offsetInCU: 0xFC84, offset: 0xFC84, size: 0x8, addend: 0x0, symName: __ZNSt3__16vectorIiNS_9allocatorIiEEEixB8ue170006Em, symObjAddr: 0x228, symBinAddr: 0x100002C04, symSize: 0x24 }
  - { offsetInCU: 0xFCBA, offset: 0xFCBA, size: 0x8, addend: 0x0, symName: __Z3dfsRNSt3__16vectorINS0_IiNS_9allocatorIiEEEENS1_IS3_EEEEiiii, symObjAddr: 0x24C, symBinAddr: 0x100002C28, symSize: 0x2FC }
  - { offsetInCU: 0xFD1B, offset: 0xFD1B, size: 0x8, addend: 0x0, symName: __ZNSt3__13mapINS_6vectorINS1_IiNS_9allocatorIiEEEENS2_IS4_EEEEiNS_4lessIS6_EENS2_INS_4pairIKS6_iEEEEE4findB8ue170006ERSA_, symObjAddr: 0x578, symBinAddr: 0x100002F54, symSize: 0x40 }
  - { offsetInCU: 0xFD50, offset: 0xFD50, size: 0x8, addend: 0x0, symName: __ZNSt3__13mapINS_6vectorINS1_IiNS_9allocatorIiEEEENS2_IS4_EEEEiNS_4lessIS6_EENS2_INS_4pairIKS6_iEEEEE3endB8ue170006Ev, symObjAddr: 0x5B8, symBinAddr: 0x100002F94, symSize: 0x38 }
  - { offsetInCU: 0xFD76, offset: 0xFD76, size: 0x8, addend: 0x0, symName: __ZNSt3__13mapINS_6vectorINS1_IiNS_9allocatorIiEEEENS2_IS4_EEEEiNS_4lessIS6_EENS2_INS_4pairIKS6_iEEEEEixERSA_, symObjAddr: 0x68C, symBinAddr: 0x100003068, symSize: 0xC8 }
  - { offsetInCU: 0xFDEF, offset: 0xFDEF, size: 0x8, addend: 0x0, symName: __ZNSt3__16vectorINS0_IiNS_9allocatorIiEEEENS1_IS3_EEEaSB8ue170006ERKS5_, symObjAddr: 0x754, symBinAddr: 0x100003130, symSize: 0x68 }
  - { offsetInCU: 0xFE26, offset: 0xFE26, size: 0x8, addend: 0x0, symName: __ZNKSt3__16vectorINS0_IiNS_9allocatorIiEEEENS1_IS3_EEE4sizeB8ue170006Ev, symObjAddr: 0x7BC, symBinAddr: 0x100003198, symSize: 0x28 }
  - { offsetInCU: 0xFE4C, offset: 0xFE4C, size: 0x8, addend: 0x0, symName: __ZNKSt3__16vectorIiNS_9allocatorIiEEE4sizeB8ue170006Ev, symObjAddr: 0x7E4, symBinAddr: 0x1000031C0, symSize: 0x28 }
  - { offsetInCU: 0xFE72, offset: 0xFE72, size: 0x8, addend: 0x0, symName: _main, symObjAddr: 0x80C, symBinAddr: 0x1000031E8, symSize: 0x3E8 }
  - { offsetInCU: 0xFF98, offset: 0xFF98, size: 0x8, addend: 0x0, symName: __ZNSt3__113basic_ostreamIcNS_11char_traitsIcEEElsB8ue170006EPFRS3_S4_E, symObjAddr: 0xC3C, symBinAddr: 0x100003618, symSize: 0x2C }
  - { offsetInCU: 0xFFCC, offset: 0xFFCC, size: 0x8, addend: 0x0, symName: __ZNSt3__13mapINS_6vectorINS1_IiNS_9allocatorIiEEEENS2_IS4_EEEEiNS_4lessIS6_EENS2_INS_4pairIKS6_iEEEEE5clearB8ue170006Ev, symObjAddr: 0xCC0, symBinAddr: 0x10000369C, symSize: 0x24 }
  - { offsetInCU: 0xFFF2, offset: 0xFFF2, size: 0x8, addend: 0x0, symName: __ZNSt3__16vectorIiNS_9allocatorIiEEEC2Em, symObjAddr: 0xCE4, symBinAddr: 0x1000036C0, symSize: 0xDC }
  - { offsetInCU: 0x1004C, offset: 0x1004C, size: 0x8, addend: 0x0, symName: __ZNSt3__117__compressed_pairIPiNS_9allocatorIiEEEC1B8ue170006IDnNS_18__default_init_tagEEEOT_OT0_, symObjAddr: 0xDC0, symBinAddr: 0x10000379C, symSize: 0x3C }
  - { offsetInCU: 0x100A4, offset: 0x100A4, size: 0x8, addend: 0x0, symName: __ZNSt3__16vectorIiNS_9allocatorIiEEE16__destroy_vectorC1B8ue170006ERS3_, symObjAddr: 0xE3C, symBinAddr: 0x100003818, symSize: 0x34 }
  - { offsetInCU: 0x100DD, offset: 0x100DD, size: 0x8, addend: 0x0, symName: __ZNSt3__16vectorIiNS_9allocatorIiEEE11__vallocateB8ue170006Em, symObjAddr: 0xE70, symBinAddr: 0x10000384C, symSize: 0xAC }
  - { offsetInCU: 0x10121, offset: 0x10121, size: 0x8, addend: 0x0, symName: __ZNSt3__16vectorIiNS_9allocatorIiEEE18__construct_at_endEm, symObjAddr: 0xF1C, symBinAddr: 0x1000038F8, symSize: 0xD0 }
  - { offsetInCU: 0x10193, offset: 0x10193, size: 0x8, addend: 0x0, symName: __ZNSt3__128__exception_guard_exceptionsINS_6vectorIiNS_9allocatorIiEEE16__destroy_vectorEE10__completeB8ue170006Ev, symObjAddr: 0xFEC, symBinAddr: 0x1000039C8, symSize: 0x1C }
  - { offsetInCU: 0x101B9, offset: 0x101B9, size: 0x8, addend: 0x0, symName: __ZNSt3__128__exception_guard_exceptionsINS_6vectorIiNS_9allocatorIiEEE16__destroy_vectorEED1B8ue170006Ev, symObjAddr: 0x1008, symBinAddr: 0x1000039E4, symSize: 0x2C }
  - { offsetInCU: 0x101E3, offset: 0x101E3, size: 0x8, addend: 0x0, symName: __ZNSt3__117__compressed_pairIPiNS_9allocatorIiEEEC2B8ue170006IDnNS_18__default_init_tagEEEOT_OT0_, symObjAddr: 0x1034, symBinAddr: 0x100003A10, symSize: 0x40 }
  - { offsetInCU: 0x1023B, offset: 0x1023B, size: 0x8, addend: 0x0, symName: __ZNSt3__122__compressed_pair_elemIPiLi0ELb0EEC2B8ue170006IDnvEEOT_, symObjAddr: 0x1074, symBinAddr: 0x100003A50, symSize: 0x1C }
  - { offsetInCU: 0x1027D, offset: 0x1027D, size: 0x8, addend: 0x0, symName: __ZNSt3__122__compressed_pair_elemINS_9allocatorIiEELi1ELb1EEC2B8ue170006ENS_18__default_init_tagE, symObjAddr: 0x1090, symBinAddr: 0x100003A6C, symSize: 0x2C }
  - { offsetInCU: 0x102B1, offset: 0x102B1, size: 0x8, addend: 0x0, symName: __ZNSt3__19allocatorIiEC2B8ue170006Ev, symObjAddr: 0x10BC, symBinAddr: 0x100003A98, symSize: 0x2C }
  - { offsetInCU: 0x102DB, offset: 0x102DB, size: 0x8, addend: 0x0, symName: __ZNSt3__116__non_trivial_ifILb1ENS_9allocatorIiEEEC2B8ue170006Ev, symObjAddr: 0x10E8, symBinAddr: 0x100003AC4, symSize: 0x14 }
  - { offsetInCU: 0x10305, offset: 0x10305, size: 0x8, addend: 0x0, symName: __ZNSt3__128__exception_guard_exceptionsINS_6vectorIiNS_9allocatorIiEEE16__destroy_vectorEEC1B8ue170006ES5_, symObjAddr: 0x10FC, symBinAddr: 0x100003AD8, symSize: 0x34 }
  - { offsetInCU: 0x1033D, offset: 0x1033D, size: 0x8, addend: 0x0, symName: __ZNSt3__128__exception_guard_exceptionsINS_6vectorIiNS_9allocatorIiEEE16__destroy_vectorEEC2B8ue170006ES5_, symObjAddr: 0x1130, symBinAddr: 0x100003B0C, symSize: 0x24 }
  - { offsetInCU: 0x10375, offset: 0x10375, size: 0x8, addend: 0x0, symName: __ZNSt3__16vectorIiNS_9allocatorIiEEE16__destroy_vectorC2B8ue170006ERS3_, symObjAddr: 0x1154, symBinAddr: 0x100003B30, symSize: 0x20 }
  - { offsetInCU: 0x103AE, offset: 0x103AE, size: 0x8, addend: 0x0, symName: __ZNKSt3__16vectorIiNS_9allocatorIiEEE8max_sizeEv, symObjAddr: 0x1174, symBinAddr: 0x100003B50, symSize: 0x74 }
  - { offsetInCU: 0x103D6, offset: 0x103D6, size: 0x8, addend: 0x0, symName: __ZNKSt3__16vectorIiNS_9allocatorIiEEE20__throw_length_errorB8ue170006Ev, symObjAddr: 0x11E8, symBinAddr: 0x100003BC4, symSize: 0x1C }
  - { offsetInCU: 0x103FC, offset: 0x103FC, size: 0x8, addend: 0x0, symName: __ZNSt3__16vectorIiNS_9allocatorIiEEE7__allocB8ue170006Ev, symObjAddr: 0x1244, symBinAddr: 0x100003C20, symSize: 0x28 }
  - { offsetInCU: 0x10422, offset: 0x10422, size: 0x8, addend: 0x0, symName: __ZNSt3__16vectorIiNS_9allocatorIiEEE9__end_capB8ue170006Ev, symObjAddr: 0x126C, symBinAddr: 0x100003C48, symSize: 0x28 }
  - { offsetInCU: 0x10448, offset: 0x10448, size: 0x8, addend: 0x0, symName: __ZNKSt3__16vectorIiNS_9allocatorIiEEE14__annotate_newB8ue170006Em, symObjAddr: 0x1294, symBinAddr: 0x100003C70, symSize: 0xAC }
  - { offsetInCU: 0x10487, offset: 0x10487, size: 0x8, addend: 0x0, symName: __ZNSt3__116allocator_traitsINS_9allocatorIiEEE8max_sizeB8ue170006IS2_vEEmRKS2_, symObjAddr: 0x136C, symBinAddr: 0x100003D48, symSize: 0x24 }
  - { offsetInCU: 0x104B5, offset: 0x104B5, size: 0x8, addend: 0x0, symName: __ZNKSt3__16vectorIiNS_9allocatorIiEEE7__allocB8ue170006Ev, symObjAddr: 0x1390, symBinAddr: 0x100003D6C, symSize: 0x28 }
  - { offsetInCU: 0x104DB, offset: 0x104DB, size: 0x8, addend: 0x0, symName: __ZNSt3__114numeric_limitsIlE3maxB8ue170006Ev, symObjAddr: 0x13B8, symBinAddr: 0x100003D94, symSize: 0x14 }
  - { offsetInCU: 0x104F9, offset: 0x104F9, size: 0x8, addend: 0x0, symName: __ZNKSt3__16__lessIvvEclB8ue170006ImmEEbRKT_RKT0_, symObjAddr: 0x1420, symBinAddr: 0x100003DFC, symSize: 0x34 }
  - { offsetInCU: 0x1054D, offset: 0x1054D, size: 0x8, addend: 0x0, symName: __ZNKSt3__19allocatorIiE8max_sizeB8ue170006Ev, symObjAddr: 0x1454, symBinAddr: 0x100003E30, symSize: 0x14 }
  - { offsetInCU: 0x10573, offset: 0x10573, size: 0x8, addend: 0x0, symName: __ZNKSt3__117__compressed_pairIPiNS_9allocatorIiEEE6secondB8ue170006Ev, symObjAddr: 0x1468, symBinAddr: 0x100003E44, symSize: 0x24 }
  - { offsetInCU: 0x10599, offset: 0x10599, size: 0x8, addend: 0x0, symName: __ZNKSt3__122__compressed_pair_elemINS_9allocatorIiEELi1ELb1EE5__getB8ue170006Ev, symObjAddr: 0x148C, symBinAddr: 0x100003E68, symSize: 0x14 }
  - { offsetInCU: 0x105BF, offset: 0x105BF, size: 0x8, addend: 0x0, symName: __ZNSt3__123__libcpp_numeric_limitsIlLb1EE3maxB8ue170006Ev, symObjAddr: 0x14A0, symBinAddr: 0x100003E7C, symSize: 0x8 }
  - { offsetInCU: 0x105D3, offset: 0x105D3, size: 0x8, addend: 0x0, symName: __ZNSt12length_errorC1B8ue170006EPKc, symObjAddr: 0x150C, symBinAddr: 0x100003EE8, symSize: 0x34 }
  - { offsetInCU: 0x1060B, offset: 0x1060B, size: 0x8, addend: 0x0, symName: __ZNSt12length_errorC2B8ue170006EPKc, symObjAddr: 0x1540, symBinAddr: 0x100003F1C, symSize: 0x4C }
  - { offsetInCU: 0x10643, offset: 0x10643, size: 0x8, addend: 0x0, symName: __ZNSt3__19allocatorIiE8allocateB8ue170006Em, symObjAddr: 0x158C, symBinAddr: 0x100003F68, symSize: 0x84 }
  - { offsetInCU: 0x10677, offset: 0x10677, size: 0x8, addend: 0x0, symName: __ZNSt3__117__compressed_pairIPiNS_9allocatorIiEEE6secondB8ue170006Ev, symObjAddr: 0x169C, symBinAddr: 0x100004078, symSize: 0x24 }
  - { offsetInCU: 0x1069D, offset: 0x1069D, size: 0x8, addend: 0x0, symName: __ZNSt3__122__compressed_pair_elemINS_9allocatorIiEELi1ELb1EE5__getB8ue170006Ev, symObjAddr: 0x16C0, symBinAddr: 0x10000409C, symSize: 0x14 }
  - { offsetInCU: 0x106C3, offset: 0x106C3, size: 0x8, addend: 0x0, symName: __ZNSt3__117__compressed_pairIPiNS_9allocatorIiEEE5firstB8ue170006Ev, symObjAddr: 0x16D4, symBinAddr: 0x1000040B0, symSize: 0x24 }
  - { offsetInCU: 0x106E9, offset: 0x106E9, size: 0x8, addend: 0x0, symName: __ZNSt3__122__compressed_pair_elemIPiLi0ELb0EE5__getB8ue170006Ev, symObjAddr: 0x16F8, symBinAddr: 0x1000040D4, symSize: 0x14 }
  - { offsetInCU: 0x1070F, offset: 0x1070F, size: 0x8, addend: 0x0, symName: __ZNKSt3__16vectorIiNS_9allocatorIiEEE31__annotate_contiguous_containerB8ue170006EPKvS5_S5_S5_, symObjAddr: 0x170C, symBinAddr: 0x1000040E8, symSize: 0x20 }
  - { offsetInCU: 0x10765, offset: 0x10765, size: 0x8, addend: 0x0, symName: __ZNKSt3__16vectorIiNS_9allocatorIiEEE4dataB8ue170006Ev, symObjAddr: 0x172C, symBinAddr: 0x100004108, symSize: 0x28 }
  - { offsetInCU: 0x1078B, offset: 0x1078B, size: 0x8, addend: 0x0, symName: __ZNKSt3__16vectorIiNS_9allocatorIiEEE8capacityB8ue170006Ev, symObjAddr: 0x1754, symBinAddr: 0x100004130, symSize: 0x40 }
  - { offsetInCU: 0x107B1, offset: 0x107B1, size: 0x8, addend: 0x0, symName: __ZNKSt3__16vectorIiNS_9allocatorIiEEE9__end_capB8ue170006Ev, symObjAddr: 0x17A8, symBinAddr: 0x100004184, symSize: 0x28 }
  - { offsetInCU: 0x107D7, offset: 0x107D7, size: 0x8, addend: 0x0, symName: __ZNKSt3__117__compressed_pairIPiNS_9allocatorIiEEE5firstB8ue170006Ev, symObjAddr: 0x17D0, symBinAddr: 0x1000041AC, symSize: 0x24 }
  - { offsetInCU: 0x107FD, offset: 0x107FD, size: 0x8, addend: 0x0, symName: __ZNKSt3__122__compressed_pair_elemIPiLi0ELb0EE5__getB8ue170006Ev, symObjAddr: 0x17F4, symBinAddr: 0x1000041D0, symSize: 0x14 }
  - { offsetInCU: 0x1083C, offset: 0x1083C, size: 0x8, addend: 0x0, symName: __ZNSt3__16vectorIiNS_9allocatorIiEEE21_ConstructTransactionC1B8ue170006ERS3_m, symObjAddr: 0x1808, symBinAddr: 0x1000041E4, symSize: 0x3C }
  - { offsetInCU: 0x10884, offset: 0x10884, size: 0x8, addend: 0x0, symName: __ZNSt3__116allocator_traitsINS_9allocatorIiEEE9constructB8ue170006IiJEvEEvRS2_PT_DpOT0_, symObjAddr: 0x1844, symBinAddr: 0x100004220, symSize: 0x2C }
  - { offsetInCU: 0x108C6, offset: 0x108C6, size: 0x8, addend: 0x0, symName: __ZNSt3__16vectorIiNS_9allocatorIiEEE21_ConstructTransactionD1B8ue170006Ev, symObjAddr: 0x1870, symBinAddr: 0x10000424C, symSize: 0x2C }
  - { offsetInCU: 0x108F0, offset: 0x108F0, size: 0x8, addend: 0x0, symName: __ZNSt3__16vectorIiNS_9allocatorIiEEE21_ConstructTransactionC2B8ue170006ERS3_m, symObjAddr: 0x189C, symBinAddr: 0x100004278, symSize: 0x44 }
  - { offsetInCU: 0x10938, offset: 0x10938, size: 0x8, addend: 0x0, symName: __ZNSt3__19allocatorIiE9constructB8ue170006IiJEEEvPT_DpOT0_, symObjAddr: 0x18E0, symBinAddr: 0x1000042BC, symSize: 0x1C }
  - { offsetInCU: 0x1097A, offset: 0x1097A, size: 0x8, addend: 0x0, symName: __ZNSt3__16vectorIiNS_9allocatorIiEEE21_ConstructTransactionD2B8ue170006Ev, symObjAddr: 0x18FC, symBinAddr: 0x1000042D8, symSize: 0x20 }
  - { offsetInCU: 0x109A4, offset: 0x109A4, size: 0x8, addend: 0x0, symName: __ZNSt3__128__exception_guard_exceptionsINS_6vectorIiNS_9allocatorIiEEE16__destroy_vectorEED2B8ue170006Ev, symObjAddr: 0x191C, symBinAddr: 0x1000042F8, symSize: 0x48 }
  - { offsetInCU: 0x109CE, offset: 0x109CE, size: 0x8, addend: 0x0, symName: __ZNSt3__16vectorIiNS_9allocatorIiEEE16__destroy_vectorclB8ue170006Ev, symObjAddr: 0x1964, symBinAddr: 0x100004340, symSize: 0x90 }
  - { offsetInCU: 0x109F4, offset: 0x109F4, size: 0x8, addend: 0x0, symName: __ZNSt3__16vectorIiNS_9allocatorIiEEE7__clearB8ue170006Ev, symObjAddr: 0x19F4, symBinAddr: 0x1000043D0, symSize: 0x28 }
  - { offsetInCU: 0x10A1A, offset: 0x10A1A, size: 0x8, addend: 0x0, symName: __ZNKSt3__16vectorIiNS_9allocatorIiEEE17__annotate_deleteB8ue170006Ev, symObjAddr: 0x1A1C, symBinAddr: 0x1000043F8, symSize: 0xB8 }
  - { offsetInCU: 0x10A40, offset: 0x10A40, size: 0x8, addend: 0x0, symName: __ZNSt3__116allocator_traitsINS_9allocatorIiEEE10deallocateB8ue170006ERS2_Pim, symObjAddr: 0x1AD4, symBinAddr: 0x1000044B0, symSize: 0x34 }
  - { offsetInCU: 0x10A82, offset: 0x10A82, size: 0x8, addend: 0x0, symName: __ZNSt3__16vectorIiNS_9allocatorIiEEE22__base_destruct_at_endB8ue170006EPi, symObjAddr: 0x1B08, symBinAddr: 0x1000044E4, symSize: 0xA0 }
  - { offsetInCU: 0x10AC6, offset: 0x10AC6, size: 0x8, addend: 0x0, symName: __ZNSt3__116allocator_traitsINS_9allocatorIiEEE7destroyB8ue170006IivEEvRS2_PT_, symObjAddr: 0x1BA8, symBinAddr: 0x100004584, symSize: 0x2C }
  - { offsetInCU: 0x10B03, offset: 0x10B03, size: 0x8, addend: 0x0, symName: __ZNSt3__19allocatorIiE7destroyB8ue170006EPi, symObjAddr: 0x1BD4, symBinAddr: 0x1000045B0, symSize: 0x14 }
  - { offsetInCU: 0x10B37, offset: 0x10B37, size: 0x8, addend: 0x0, symName: __ZNSt3__19allocatorIiE10deallocateB8ue170006EPim, symObjAddr: 0x1BE8, symBinAddr: 0x1000045C4, symSize: 0x70 }
  - { offsetInCU: 0x10B79, offset: 0x10B79, size: 0x8, addend: 0x0, symName: __ZNSt3__16vectorIiNS_9allocatorIiEEED2B8ue170006Ev, symObjAddr: 0x1CD4, symBinAddr: 0x1000046B0, symSize: 0x3C }
  - { offsetInCU: 0x10BA3, offset: 0x10BA3, size: 0x8, addend: 0x0, symName: __ZNSt3__16vectorINS0_IiNS_9allocatorIiEEEENS1_IS3_EEEC2EmRKS3_, symObjAddr: 0x1D10, symBinAddr: 0x1000046EC, symSize: 0xE4 }
  - { offsetInCU: 0x10C02, offset: 0x10C02, size: 0x8, addend: 0x0, symName: __ZNSt3__117__compressed_pairIPNS_6vectorIiNS_9allocatorIiEEEENS2_IS4_EEEC1B8ue170006IDnNS_18__default_init_tagEEEOT_OT0_, symObjAddr: 0x1DF4, symBinAddr: 0x1000047D0, symSize: 0x3C }
  - { offsetInCU: 0x10C5A, offset: 0x10C5A, size: 0x8, addend: 0x0, symName: __ZNSt3__16vectorINS0_IiNS_9allocatorIiEEEENS1_IS3_EEE16__destroy_vectorC1B8ue170006ERS5_, symObjAddr: 0x1E70, symBinAddr: 0x10000484C, symSize: 0x34 }
  - { offsetInCU: 0x10C93, offset: 0x10C93, size: 0x8, addend: 0x0, symName: __ZNSt3__16vectorINS0_IiNS_9allocatorIiEEEENS1_IS3_EEE11__vallocateB8ue170006Em, symObjAddr: 0x1EA4, symBinAddr: 0x100004880, symSize: 0xB4 }
  - { offsetInCU: 0x10CD7, offset: 0x10CD7, size: 0x8, addend: 0x0, symName: __ZNSt3__16vectorINS0_IiNS_9allocatorIiEEEENS1_IS3_EEE18__construct_at_endEmRKS3_, symObjAddr: 0x1F58, symBinAddr: 0x100004934, symSize: 0xD8 }
  - { offsetInCU: 0x10D58, offset: 0x10D58, size: 0x8, addend: 0x0, symName: __ZNSt3__128__exception_guard_exceptionsINS_6vectorINS1_IiNS_9allocatorIiEEEENS2_IS4_EEE16__destroy_vectorEE10__completeB8ue170006Ev, symObjAddr: 0x2030, symBinAddr: 0x100004A0C, symSize: 0x1C }
  - { offsetInCU: 0x10D7E, offset: 0x10D7E, size: 0x8, addend: 0x0, symName: __ZNSt3__128__exception_guard_exceptionsINS_6vectorINS1_IiNS_9allocatorIiEEEENS2_IS4_EEE16__destroy_vectorEED1B8ue170006Ev, symObjAddr: 0x204C, symBinAddr: 0x100004A28, symSize: 0x2C }
  - { offsetInCU: 0x10DA8, offset: 0x10DA8, size: 0x8, addend: 0x0, symName: __ZNSt3__117__compressed_pairIPNS_6vectorIiNS_9allocatorIiEEEENS2_IS4_EEEC2B8ue170006IDnNS_18__default_init_tagEEEOT_OT0_, symObjAddr: 0x2078, symBinAddr: 0x100004A54, symSize: 0x40 }
  - { offsetInCU: 0x10E00, offset: 0x10E00, size: 0x8, addend: 0x0, symName: __ZNSt3__122__compressed_pair_elemIPNS_6vectorIiNS_9allocatorIiEEEELi0ELb0EEC2B8ue170006IDnvEEOT_, symObjAddr: 0x20B8, symBinAddr: 0x100004A94, symSize: 0x1C }
  - { offsetInCU: 0x10E42, offset: 0x10E42, size: 0x8, addend: 0x0, symName: __ZNSt3__122__compressed_pair_elemINS_9allocatorINS_6vectorIiNS1_IiEEEEEELi1ELb1EEC2B8ue170006ENS_18__default_init_tagE, symObjAddr: 0x20D4, symBinAddr: 0x100004AB0, symSize: 0x2C }
  - { offsetInCU: 0x10E76, offset: 0x10E76, size: 0x8, addend: 0x0, symName: __ZNSt3__19allocatorINS_6vectorIiNS0_IiEEEEEC2B8ue170006Ev, symObjAddr: 0x2100, symBinAddr: 0x100004ADC, symSize: 0x2C }
  - { offsetInCU: 0x10EA0, offset: 0x10EA0, size: 0x8, addend: 0x0, symName: __ZNSt3__116__non_trivial_ifILb1ENS_9allocatorINS_6vectorIiNS1_IiEEEEEEEC2B8ue170006Ev, symObjAddr: 0x212C, symBinAddr: 0x100004B08, symSize: 0x14 }
  - { offsetInCU: 0x10ECA, offset: 0x10ECA, size: 0x8, addend: 0x0, symName: __ZNSt3__128__exception_guard_exceptionsINS_6vectorINS1_IiNS_9allocatorIiEEEENS2_IS4_EEE16__destroy_vectorEEC1B8ue170006ES7_, symObjAddr: 0x2140, symBinAddr: 0x100004B1C, symSize: 0x34 }
  - { offsetInCU: 0x10F02, offset: 0x10F02, size: 0x8, addend: 0x0, symName: __ZNSt3__128__exception_guard_exceptionsINS_6vectorINS1_IiNS_9allocatorIiEEEENS2_IS4_EEE16__destroy_vectorEEC2B8ue170006ES7_, symObjAddr: 0x2174, symBinAddr: 0x100004B50, symSize: 0x24 }
  - { offsetInCU: 0x10F3A, offset: 0x10F3A, size: 0x8, addend: 0x0, symName: __ZNSt3__16vectorINS0_IiNS_9allocatorIiEEEENS1_IS3_EEE16__destroy_vectorC2B8ue170006ERS5_, symObjAddr: 0x2198, symBinAddr: 0x100004B74, symSize: 0x20 }
  - { offsetInCU: 0x10F73, offset: 0x10F73, size: 0x8, addend: 0x0, symName: __ZNKSt3__16vectorINS0_IiNS_9allocatorIiEEEENS1_IS3_EEE8max_sizeEv, symObjAddr: 0x21B8, symBinAddr: 0x100004B94, symSize: 0x74 }
  - { offsetInCU: 0x10F9B, offset: 0x10F9B, size: 0x8, addend: 0x0, symName: __ZNKSt3__16vectorINS0_IiNS_9allocatorIiEEEENS1_IS3_EEE20__throw_length_errorB8ue170006Ev, symObjAddr: 0x222C, symBinAddr: 0x100004C08, symSize: 0x1C }
  - { offsetInCU: 0x10FC1, offset: 0x10FC1, size: 0x8, addend: 0x0, symName: __ZNSt3__16vectorINS0_IiNS_9allocatorIiEEEENS1_IS3_EEE7__allocB8ue170006Ev, symObjAddr: 0x2288, symBinAddr: 0x100004C64, symSize: 0x28 }
  - { offsetInCU: 0x10FE7, offset: 0x10FE7, size: 0x8, addend: 0x0, symName: __ZNSt3__16vectorINS0_IiNS_9allocatorIiEEEENS1_IS3_EEE9__end_capB8ue170006Ev, symObjAddr: 0x22B0, symBinAddr: 0x100004C8C, symSize: 0x28 }
  - { offsetInCU: 0x1100D, offset: 0x1100D, size: 0x8, addend: 0x0, symName: __ZNKSt3__16vectorINS0_IiNS_9allocatorIiEEEENS1_IS3_EEE14__annotate_newB8ue170006Em, symObjAddr: 0x22D8, symBinAddr: 0x100004CB4, symSize: 0xC8 }
  - { offsetInCU: 0x1104C, offset: 0x1104C, size: 0x8, addend: 0x0, symName: __ZNSt3__116allocator_traitsINS_9allocatorINS_6vectorIiNS1_IiEEEEEEE8max_sizeB8ue170006IS5_vEEmRKS5_, symObjAddr: 0x23A0, symBinAddr: 0x100004D7C, symSize: 0x24 }
  - { offsetInCU: 0x1107A, offset: 0x1107A, size: 0x8, addend: 0x0, symName: __ZNKSt3__16vectorINS0_IiNS_9allocatorIiEEEENS1_IS3_EEE7__allocB8ue170006Ev, symObjAddr: 0x23C4, symBinAddr: 0x100004DA0, symSize: 0x28 }
  - { offsetInCU: 0x110A0, offset: 0x110A0, size: 0x8, addend: 0x0, symName: __ZNKSt3__19allocatorINS_6vectorIiNS0_IiEEEEE8max_sizeB8ue170006Ev, symObjAddr: 0x23EC, symBinAddr: 0x100004DC8, symSize: 0x18 }
  - { offsetInCU: 0x110C6, offset: 0x110C6, size: 0x8, addend: 0x0, symName: __ZNKSt3__117__compressed_pairIPNS_6vectorIiNS_9allocatorIiEEEENS2_IS4_EEE6secondB8ue170006Ev, symObjAddr: 0x2404, symBinAddr: 0x100004DE0, symSize: 0x24 }
  - { offsetInCU: 0x110EC, offset: 0x110EC, size: 0x8, addend: 0x0, symName: __ZNKSt3__122__compressed_pair_elemINS_9allocatorINS_6vectorIiNS1_IiEEEEEELi1ELb1EE5__getB8ue170006Ev, symObjAddr: 0x2428, symBinAddr: 0x100004E04, symSize: 0x14 }
  - { offsetInCU: 0x11112, offset: 0x11112, size: 0x8, addend: 0x0, symName: __ZNSt3__19allocatorINS_6vectorIiNS0_IiEEEEE8allocateB8ue170006Em, symObjAddr: 0x243C, symBinAddr: 0x100004E18, symSize: 0x8C }
  - { offsetInCU: 0x11146, offset: 0x11146, size: 0x8, addend: 0x0, symName: __ZNSt3__117__compressed_pairIPNS_6vectorIiNS_9allocatorIiEEEENS2_IS4_EEE6secondB8ue170006Ev, symObjAddr: 0x24C8, symBinAddr: 0x100004EA4, symSize: 0x24 }
  - { offsetInCU: 0x1116C, offset: 0x1116C, size: 0x8, addend: 0x0, symName: __ZNSt3__122__compressed_pair_elemINS_9allocatorINS_6vectorIiNS1_IiEEEEEELi1ELb1EE5__getB8ue170006Ev, symObjAddr: 0x24EC, symBinAddr: 0x100004EC8, symSize: 0x14 }
  - { offsetInCU: 0x11192, offset: 0x11192, size: 0x8, addend: 0x0, symName: __ZNSt3__117__compressed_pairIPNS_6vectorIiNS_9allocatorIiEEEENS2_IS4_EEE5firstB8ue170006Ev, symObjAddr: 0x2500, symBinAddr: 0x100004EDC, symSize: 0x24 }
  - { offsetInCU: 0x111B8, offset: 0x111B8, size: 0x8, addend: 0x0, symName: __ZNSt3__122__compressed_pair_elemIPNS_6vectorIiNS_9allocatorIiEEEELi0ELb0EE5__getB8ue170006Ev, symObjAddr: 0x2524, symBinAddr: 0x100004F00, symSize: 0x14 }
  - { offsetInCU: 0x111DE, offset: 0x111DE, size: 0x8, addend: 0x0, symName: __ZNKSt3__16vectorINS0_IiNS_9allocatorIiEEEENS1_IS3_EEE31__annotate_contiguous_containerB8ue170006EPKvS7_S7_S7_, symObjAddr: 0x2538, symBinAddr: 0x100004F14, symSize: 0x20 }
  - { offsetInCU: 0x11234, offset: 0x11234, size: 0x8, addend: 0x0, symName: __ZNKSt3__16vectorINS0_IiNS_9allocatorIiEEEENS1_IS3_EEE4dataB8ue170006Ev, symObjAddr: 0x2558, symBinAddr: 0x100004F34, symSize: 0x28 }
  - { offsetInCU: 0x1125A, offset: 0x1125A, size: 0x8, addend: 0x0, symName: __ZNKSt3__16vectorINS0_IiNS_9allocatorIiEEEENS1_IS3_EEE8capacityB8ue170006Ev, symObjAddr: 0x2580, symBinAddr: 0x100004F5C, symSize: 0x40 }
  - { offsetInCU: 0x11280, offset: 0x11280, size: 0x8, addend: 0x0, symName: __ZNKSt3__16vectorINS0_IiNS_9allocatorIiEEEENS1_IS3_EEE9__end_capB8ue170006Ev, symObjAddr: 0x25D4, symBinAddr: 0x100004FB0, symSize: 0x28 }
  - { offsetInCU: 0x112A6, offset: 0x112A6, size: 0x8, addend: 0x0, symName: __ZNKSt3__117__compressed_pairIPNS_6vectorIiNS_9allocatorIiEEEENS2_IS4_EEE5firstB8ue170006Ev, symObjAddr: 0x25FC, symBinAddr: 0x100004FD8, symSize: 0x24 }
  - { offsetInCU: 0x112CC, offset: 0x112CC, size: 0x8, addend: 0x0, symName: __ZNKSt3__122__compressed_pair_elemIPNS_6vectorIiNS_9allocatorIiEEEELi0ELb0EE5__getB8ue170006Ev, symObjAddr: 0x2620, symBinAddr: 0x100004FFC, symSize: 0x14 }
  - { offsetInCU: 0x1130B, offset: 0x1130B, size: 0x8, addend: 0x0, symName: __ZNSt3__16vectorINS0_IiNS_9allocatorIiEEEENS1_IS3_EEE21_ConstructTransactionC1B8ue170006ERS5_m, symObjAddr: 0x2634, symBinAddr: 0x100005010, symSize: 0x3C }
  - { offsetInCU: 0x11353, offset: 0x11353, size: 0x8, addend: 0x0, symName: __ZNSt3__116allocator_traitsINS_9allocatorINS_6vectorIiNS1_IiEEEEEEE9constructB8ue170006IS4_JRKS4_EvEEvRS5_PT_DpOT0_, symObjAddr: 0x2670, symBinAddr: 0x10000504C, symSize: 0x34 }
  - { offsetInCU: 0x113AA, offset: 0x113AA, size: 0x8, addend: 0x0, symName: __ZNSt3__16vectorINS0_IiNS_9allocatorIiEEEENS1_IS3_EEE21_ConstructTransactionD1B8ue170006Ev, symObjAddr: 0x26A4, symBinAddr: 0x100005080, symSize: 0x2C }
  - { offsetInCU: 0x113D4, offset: 0x113D4, size: 0x8, addend: 0x0, symName: __ZNSt3__16vectorINS0_IiNS_9allocatorIiEEEENS1_IS3_EEE21_ConstructTransactionC2B8ue170006ERS5_m, symObjAddr: 0x26D0, symBinAddr: 0x1000050AC, symSize: 0x4C }
  - { offsetInCU: 0x1141C, offset: 0x1141C, size: 0x8, addend: 0x0, symName: __ZNSt3__19allocatorINS_6vectorIiNS0_IiEEEEE9constructB8ue170006IS3_JRKS3_EEEvPT_DpOT0_, symObjAddr: 0x271C, symBinAddr: 0x1000050F8, symSize: 0x30 }
  - { offsetInCU: 0x11472, offset: 0x11472, size: 0x8, addend: 0x0, symName: __ZNSt3__16vectorIiNS_9allocatorIiEEEC1ERKS3_, symObjAddr: 0x274C, symBinAddr: 0x100005128, symSize: 0x34 }
  - { offsetInCU: 0x114AD, offset: 0x114AD, size: 0x8, addend: 0x0, symName: __ZNSt3__16vectorIiNS_9allocatorIiEEEC2ERKS3_, symObjAddr: 0x2780, symBinAddr: 0x10000515C, symSize: 0x94 }
  - { offsetInCU: 0x114E8, offset: 0x114E8, size: 0x8, addend: 0x0, symName: __ZNSt3__116allocator_traitsINS_9allocatorIiEEE37select_on_container_copy_constructionB8ue170006IS2_vvEES2_RKS2_, symObjAddr: 0x2814, symBinAddr: 0x1000051F0, symSize: 0x10 }
  - { offsetInCU: 0x1151C, offset: 0x1151C, size: 0x8, addend: 0x0, symName: __ZNSt3__117__compressed_pairIPiNS_9allocatorIiEEEC1B8ue170006IDnS3_EEOT_OT0_, symObjAddr: 0x2824, symBinAddr: 0x100005200, symSize: 0x3C }
  - { offsetInCU: 0x11574, offset: 0x11574, size: 0x8, addend: 0x0, symName: __ZNSt3__16vectorIiNS_9allocatorIiEEE16__init_with_sizeB8ue170006IPiS5_EEvT_T0_m, symObjAddr: 0x2860, symBinAddr: 0x10000523C, symSize: 0xC0 }
  - { offsetInCU: 0x115E8, offset: 0x115E8, size: 0x8, addend: 0x0, symName: __ZNSt3__117__compressed_pairIPiNS_9allocatorIiEEEC2B8ue170006IDnS3_EEOT_OT0_, symObjAddr: 0x2920, symBinAddr: 0x1000052FC, symSize: 0x44 }
  - { offsetInCU: 0x11640, offset: 0x11640, size: 0x8, addend: 0x0, symName: __ZNSt3__122__compressed_pair_elemINS_9allocatorIiEELi1ELb1EEC2B8ue170006IS2_vEEOT_, symObjAddr: 0x2964, symBinAddr: 0x100005340, symSize: 0x18 }
  - { offsetInCU: 0x11682, offset: 0x11682, size: 0x8, addend: 0x0, symName: __ZNSt3__16vectorIiNS_9allocatorIiEEE18__construct_at_endIPiS5_EEvT_T0_m, symObjAddr: 0x297C, symBinAddr: 0x100005358, symSize: 0x94 }
  - { offsetInCU: 0x11711, offset: 0x11711, size: 0x8, addend: 0x0, symName: __ZNSt3__14pairIPiS1_EC1B8ue170006ERKS1_S4_, symObjAddr: 0x2C98, symBinAddr: 0x100005674, symSize: 0x3C }
  - { offsetInCU: 0x11757, offset: 0x11757, size: 0x8, addend: 0x0, symName: __ZNSt3__14pairIPiS1_EC2B8ue170006ERKS1_S4_, symObjAddr: 0x2CD4, symBinAddr: 0x1000056B0, symSize: 0x34 }
  - { offsetInCU: 0x1179D, offset: 0x1179D, size: 0x8, addend: 0x0, symName: __ZNSt3__129_AllocatorDestroyRangeReverseINS_9allocatorIiEEPiEC1B8ue170006ERS2_RS3_S6_, symObjAddr: 0x2D54, symBinAddr: 0x100005730, symSize: 0x44 }
  - { offsetInCU: 0x117F4, offset: 0x117F4, size: 0x8, addend: 0x0, symName: __ZNSt3__116allocator_traitsINS_9allocatorIiEEE9constructB8ue170006IiJRiEvEEvRS2_PT_DpOT0_, symObjAddr: 0x2D98, symBinAddr: 0x100005774, symSize: 0x34 }
  - { offsetInCU: 0x1184B, offset: 0x1184B, size: 0x8, addend: 0x0, symName: __ZNSt3__128__exception_guard_exceptionsINS_29_AllocatorDestroyRangeReverseINS_9allocatorIiEEPiEEE10__completeB8ue170006Ev, symObjAddr: 0x2DCC, symBinAddr: 0x1000057A8, symSize: 0x1C }
  - { offsetInCU: 0x11871, offset: 0x11871, size: 0x8, addend: 0x0, symName: __ZNSt3__128__exception_guard_exceptionsINS_29_AllocatorDestroyRangeReverseINS_9allocatorIiEEPiEEED1B8ue170006Ev, symObjAddr: 0x2DE8, symBinAddr: 0x1000057C4, symSize: 0x2C }
  - { offsetInCU: 0x1189B, offset: 0x1189B, size: 0x8, addend: 0x0, symName: __ZNSt3__128__exception_guard_exceptionsINS_29_AllocatorDestroyRangeReverseINS_9allocatorIiEEPiEEEC1B8ue170006ES5_, symObjAddr: 0x2E14, symBinAddr: 0x1000057F0, symSize: 0x34 }
  - { offsetInCU: 0x118D4, offset: 0x118D4, size: 0x8, addend: 0x0, symName: __ZNSt3__128__exception_guard_exceptionsINS_29_AllocatorDestroyRangeReverseINS_9allocatorIiEEPiEEEC2B8ue170006ES5_, symObjAddr: 0x2E48, symBinAddr: 0x100005824, symSize: 0x30 }
  - { offsetInCU: 0x1190D, offset: 0x1190D, size: 0x8, addend: 0x0, symName: __ZNSt3__129_AllocatorDestroyRangeReverseINS_9allocatorIiEEPiEC2B8ue170006ERS2_RS3_S6_, symObjAddr: 0x2E78, symBinAddr: 0x100005854, symSize: 0x38 }
  - { offsetInCU: 0x11964, offset: 0x11964, size: 0x8, addend: 0x0, symName: __ZNSt3__19allocatorIiE9constructB8ue170006IiJRiEEEvPT_DpOT0_, symObjAddr: 0x2EB0, symBinAddr: 0x10000588C, symSize: 0x28 }
  - { offsetInCU: 0x119BA, offset: 0x119BA, size: 0x8, addend: 0x0, symName: __ZNSt3__128__exception_guard_exceptionsINS_29_AllocatorDestroyRangeReverseINS_9allocatorIiEEPiEEED2B8ue170006Ev, symObjAddr: 0x2ED8, symBinAddr: 0x1000058B4, symSize: 0x48 }
  - { offsetInCU: 0x119E4, offset: 0x119E4, size: 0x8, addend: 0x0, symName: __ZNKSt3__129_AllocatorDestroyRangeReverseINS_9allocatorIiEEPiEclB8ue170006Ev, symObjAddr: 0x2F20, symBinAddr: 0x1000058FC, symSize: 0x68 }
  - { offsetInCU: 0x11A0A, offset: 0x11A0A, size: 0x8, addend: 0x0, symName: __ZNSt3__116reverse_iteratorIPiEC1B8ue170006ES1_, symObjAddr: 0x2FF8, symBinAddr: 0x1000059D4, symSize: 0x34 }
  - { offsetInCU: 0x11A42, offset: 0x11A42, size: 0x8, addend: 0x0, symName: __ZNSt3__116reverse_iteratorIPiEppB8ue170006Ev, symObjAddr: 0x3098, symBinAddr: 0x100005A74, symSize: 0x20 }
  - { offsetInCU: 0x11A68, offset: 0x11A68, size: 0x8, addend: 0x0, symName: __ZNKSt3__116reverse_iteratorIPiE4baseB8ue170006Ev, symObjAddr: 0x30B8, symBinAddr: 0x100005A94, symSize: 0x18 }
  - { offsetInCU: 0x11A93, offset: 0x11A93, size: 0x8, addend: 0x0, symName: __ZNSt3__119__to_address_helperINS_16reverse_iteratorIPiEEvE6__callB8ue170006ERKS3_, symObjAddr: 0x30D0, symBinAddr: 0x100005AAC, symSize: 0x4C }
  - { offsetInCU: 0x11AB6, offset: 0x11AB6, size: 0x8, addend: 0x0, symName: __ZNKSt3__116reverse_iteratorIPiEptB8ue170006Ev, symObjAddr: 0x311C, symBinAddr: 0x100005AF8, symSize: 0x24 }
  - { offsetInCU: 0x11ADC, offset: 0x11ADC, size: 0x8, addend: 0x0, symName: __ZNKSt3__116reverse_iteratorIPiEdeB8ue170006Ev, symObjAddr: 0x3140, symBinAddr: 0x100005B1C, symSize: 0x28 }
  - { offsetInCU: 0x11B10, offset: 0x11B10, size: 0x8, addend: 0x0, symName: __ZNSt3__116reverse_iteratorIPiEC2B8ue170006ES1_, symObjAddr: 0x3168, symBinAddr: 0x100005B44, symSize: 0x28 }
  - { offsetInCU: 0x11B48, offset: 0x11B48, size: 0x8, addend: 0x0, symName: __ZNSt3__118__unwrap_iter_implIPiLb1EE8__unwrapB8ue170006ES1_, symObjAddr: 0x3190, symBinAddr: 0x100005B6C, symSize: 0x24 }
  - { offsetInCU: 0x11B6B, offset: 0x11B6B, size: 0x8, addend: 0x0, symName: __ZNSt3__118__unwrap_iter_implIPiLb1EE8__rewrapB8ue170006ES1_S1_, symObjAddr: 0x31B4, symBinAddr: 0x100005B90, symSize: 0x50 }
  - { offsetInCU: 0x11B9C, offset: 0x11B9C, size: 0x8, addend: 0x0, symName: __ZNSt3__16vectorINS0_IiNS_9allocatorIiEEEENS1_IS3_EEE21_ConstructTransactionD2B8ue170006Ev, symObjAddr: 0x3204, symBinAddr: 0x100005BE0, symSize: 0x20 }
  - { offsetInCU: 0x11BC6, offset: 0x11BC6, size: 0x8, addend: 0x0, symName: __ZNSt3__128__exception_guard_exceptionsINS_6vectorINS1_IiNS_9allocatorIiEEEENS2_IS4_EEE16__destroy_vectorEED2B8ue170006Ev, symObjAddr: 0x3224, symBinAddr: 0x100005C00, symSize: 0x48 }
  - { offsetInCU: 0x11BF0, offset: 0x11BF0, size: 0x8, addend: 0x0, symName: __ZNSt3__16vectorINS0_IiNS_9allocatorIiEEEENS1_IS3_EEE16__destroy_vectorclB8ue170006Ev, symObjAddr: 0x326C, symBinAddr: 0x100005C48, symSize: 0x90 }
  - { offsetInCU: 0x11C16, offset: 0x11C16, size: 0x8, addend: 0x0, symName: __ZNSt3__16vectorINS0_IiNS_9allocatorIiEEEENS1_IS3_EEE7__clearB8ue170006Ev, symObjAddr: 0x32FC, symBinAddr: 0x100005CD8, symSize: 0x28 }
  - { offsetInCU: 0x11C3C, offset: 0x11C3C, size: 0x8, addend: 0x0, symName: __ZNKSt3__16vectorINS0_IiNS_9allocatorIiEEEENS1_IS3_EEE17__annotate_deleteB8ue170006Ev, symObjAddr: 0x3324, symBinAddr: 0x100005D00, symSize: 0xD4 }
  - { offsetInCU: 0x11C62, offset: 0x11C62, size: 0x8, addend: 0x0, symName: __ZNSt3__116allocator_traitsINS_9allocatorINS_6vectorIiNS1_IiEEEEEEE10deallocateB8ue170006ERS5_PS4_m, symObjAddr: 0x33F8, symBinAddr: 0x100005DD4, symSize: 0x34 }
  - { offsetInCU: 0x11CA4, offset: 0x11CA4, size: 0x8, addend: 0x0, symName: __ZNSt3__16vectorINS0_IiNS_9allocatorIiEEEENS1_IS3_EEE22__base_destruct_at_endB8ue170006EPS3_, symObjAddr: 0x342C, symBinAddr: 0x100005E08, symSize: 0xA0 }
  - { offsetInCU: 0x11CE8, offset: 0x11CE8, size: 0x8, addend: 0x0, symName: __ZNSt3__116allocator_traitsINS_9allocatorINS_6vectorIiNS1_IiEEEEEEE7destroyB8ue170006IS4_vEEvRS5_PT_, symObjAddr: 0x34CC, symBinAddr: 0x100005EA8, symSize: 0x2C }
  - { offsetInCU: 0x11D25, offset: 0x11D25, size: 0x8, addend: 0x0, symName: __ZNSt3__19allocatorINS_6vectorIiNS0_IiEEEEE7destroyB8ue170006EPS3_, symObjAddr: 0x34F8, symBinAddr: 0x100005ED4, symSize: 0x28 }
  - { offsetInCU: 0x11D59, offset: 0x11D59, size: 0x8, addend: 0x0, symName: __ZNSt3__19allocatorINS_6vectorIiNS0_IiEEEEE10deallocateB8ue170006EPS3_m, symObjAddr: 0x3520, symBinAddr: 0x100005EFC, symSize: 0x74 }
  - { offsetInCU: 0x11D9B, offset: 0x11D9B, size: 0x8, addend: 0x0, symName: __ZNSt3__16vectorINS0_IiNS_9allocatorIiEEEENS1_IS3_EEED2B8ue170006Ev, symObjAddr: 0x3594, symBinAddr: 0x100005F70, symSize: 0x3C }
  - { offsetInCU: 0x11DC5, offset: 0x11DC5, size: 0x8, addend: 0x0, symName: __ZNSt3__13mapINS_6vectorINS1_IiNS_9allocatorIiEEEENS2_IS4_EEEEiNS_4lessIS6_EENS2_INS_4pairIKS6_iEEEEEC2B8ue170006Ev, symObjAddr: 0x35D0, symBinAddr: 0x100005FAC, symSize: 0x40 }
  - { offsetInCU: 0x11DEF, offset: 0x11DEF, size: 0x8, addend: 0x0, symName: __ZNSt3__119__map_value_compareINS_6vectorINS1_IiNS_9allocatorIiEEEENS2_IS4_EEEENS_12__value_typeIS6_iEENS_4lessIS6_EELb1EEC1B8ue170006ESA_, symObjAddr: 0x3610, symBinAddr: 0x100005FEC, symSize: 0x2C }
  - { offsetInCU: 0x11E28, offset: 0x11E28, size: 0x8, addend: 0x0, symName: __ZNSt3__16__treeINS_12__value_typeINS_6vectorINS2_IiNS_9allocatorIiEEEENS3_IS5_EEEEiEENS_19__map_value_compareIS7_S8_NS_4lessIS7_EELb1EEENS3_IS8_EEEC1ERKSC_, symObjAddr: 0x363C, symBinAddr: 0x100006018, symSize: 0x34 }
  - { offsetInCU: 0x11E63, offset: 0x11E63, size: 0x8, addend: 0x0, symName: __ZNSt3__119__map_value_compareINS_6vectorINS1_IiNS_9allocatorIiEEEENS2_IS4_EEEENS_12__value_typeIS6_iEENS_4lessIS6_EELb1EEC2B8ue170006ESA_, symObjAddr: 0x3670, symBinAddr: 0x10000604C, symSize: 0x14 }
  - { offsetInCU: 0x11E9C, offset: 0x11E9C, size: 0x8, addend: 0x0, symName: __ZNSt3__16__treeINS_12__value_typeINS_6vectorINS2_IiNS_9allocatorIiEEEENS3_IS5_EEEEiEENS_19__map_value_compareIS7_S8_NS_4lessIS7_EELb1EEENS3_IS8_EEEC2ERKSC_, symObjAddr: 0x3684, symBinAddr: 0x100006060, symSize: 0x70 }
  - { offsetInCU: 0x11ED7, offset: 0x11ED7, size: 0x8, addend: 0x0, symName: __ZNSt3__117__compressed_pairINS_15__tree_end_nodeIPNS_16__tree_node_baseIPvEEEENS_9allocatorINS_11__tree_nodeINS_12__value_typeINS_6vectorINSA_IiNS7_IiEEEENS7_ISC_EEEEiEES3_EEEEEC1B8ue170006ILb1EvEEv, symObjAddr: 0x36F4, symBinAddr: 0x1000060D0, symSize: 0x2C }
  - { offsetInCU: 0x11F11, offset: 0x11F11, size: 0x8, addend: 0x0, symName: __ZNSt3__117__compressed_pairImNS_19__map_value_compareINS_6vectorINS2_IiNS_9allocatorIiEEEENS3_IS5_EEEENS_12__value_typeIS7_iEENS_4lessIS7_EELb1EEEEC1B8ue170006IiRKSC_EEOT_OT0_, symObjAddr: 0x3720, symBinAddr: 0x1000060FC, symSize: 0x3C }
  - { offsetInCU: 0x11F69, offset: 0x11F69, size: 0x8, addend: 0x0, symName: __ZNSt3__16__treeINS_12__value_typeINS_6vectorINS2_IiNS_9allocatorIiEEEENS3_IS5_EEEEiEENS_19__map_value_compareIS7_S8_NS_4lessIS7_EELb1EEENS3_IS8_EEE10__end_nodeB8ue170006Ev, symObjAddr: 0x375C, symBinAddr: 0x100006138, symSize: 0x2C }
  - { offsetInCU: 0x11F8F, offset: 0x11F8F, size: 0x8, addend: 0x0, symName: __ZNSt3__16__treeINS_12__value_typeINS_6vectorINS2_IiNS_9allocatorIiEEEENS3_IS5_EEEEiEENS_19__map_value_compareIS7_S8_NS_4lessIS7_EELb1EEENS3_IS8_EEE12__begin_nodeB8ue170006Ev, symObjAddr: 0x3788, symBinAddr: 0x100006164, symSize: 0x14 }
  - { offsetInCU: 0x11FB5, offset: 0x11FB5, size: 0x8, addend: 0x0, symName: __ZNSt3__117__compressed_pairINS_15__tree_end_nodeIPNS_16__tree_node_baseIPvEEEENS_9allocatorINS_11__tree_nodeINS_12__value_typeINS_6vectorINSA_IiNS7_IiEEEENS7_ISC_EEEEiEES3_EEEEEC2B8ue170006ILb1EvEEv, symObjAddr: 0x379C, symBinAddr: 0x100006178, symSize: 0x34 }
  - { offsetInCU: 0x11FEA, offset: 0x11FEA, size: 0x8, addend: 0x0, symName: __ZNSt3__122__compressed_pair_elemINS_15__tree_end_nodeIPNS_16__tree_node_baseIPvEEEELi0ELb0EEC2B8ue170006ENS_16__value_init_tagE, symObjAddr: 0x37D0, symBinAddr: 0x1000061AC, symSize: 0x2C }
  - { offsetInCU: 0x1201E, offset: 0x1201E, size: 0x8, addend: 0x0, symName: __ZNSt3__122__compressed_pair_elemINS_9allocatorINS_11__tree_nodeINS_12__value_typeINS_6vectorINS4_IiNS1_IiEEEENS1_IS6_EEEEiEEPvEEEELi1ELb1EEC2B8ue170006ENS_16__value_init_tagE, symObjAddr: 0x37FC, symBinAddr: 0x1000061D8, symSize: 0x2C }
  - { offsetInCU: 0x12052, offset: 0x12052, size: 0x8, addend: 0x0, symName: __ZNSt3__115__tree_end_nodeIPNS_16__tree_node_baseIPvEEEC1B8ue170006Ev, symObjAddr: 0x3828, symBinAddr: 0x100006204, symSize: 0x2C }
  - { offsetInCU: 0x1207C, offset: 0x1207C, size: 0x8, addend: 0x0, symName: __ZNSt3__115__tree_end_nodeIPNS_16__tree_node_baseIPvEEEC2B8ue170006Ev, symObjAddr: 0x3854, symBinAddr: 0x100006230, symSize: 0x18 }
  - { offsetInCU: 0x120A6, offset: 0x120A6, size: 0x8, addend: 0x0, symName: __ZNSt3__19allocatorINS_11__tree_nodeINS_12__value_typeINS_6vectorINS3_IiNS0_IiEEEENS0_IS5_EEEEiEEPvEEEC2B8ue170006Ev, symObjAddr: 0x386C, symBinAddr: 0x100006248, symSize: 0x2C }
  - { offsetInCU: 0x120D0, offset: 0x120D0, size: 0x8, addend: 0x0, symName: __ZNSt3__116__non_trivial_ifILb1ENS_9allocatorINS_11__tree_nodeINS_12__value_typeINS_6vectorINS4_IiNS1_IiEEEENS1_IS6_EEEEiEEPvEEEEEC2B8ue170006Ev, symObjAddr: 0x3898, symBinAddr: 0x100006274, symSize: 0x14 }
  - { offsetInCU: 0x120FA, offset: 0x120FA, size: 0x8, addend: 0x0, symName: __ZNSt3__117__compressed_pairImNS_19__map_value_compareINS_6vectorINS2_IiNS_9allocatorIiEEEENS3_IS5_EEEENS_12__value_typeIS7_iEENS_4lessIS7_EELb1EEEEC2B8ue170006IiRKSC_EEOT_OT0_, symObjAddr: 0x38AC, symBinAddr: 0x100006288, symSize: 0x44 }
  - { offsetInCU: 0x12152, offset: 0x12152, size: 0x8, addend: 0x0, symName: __ZNSt3__122__compressed_pair_elemImLi0ELb0EEC2B8ue170006IivEEOT_, symObjAddr: 0x38F0, symBinAddr: 0x1000062CC, symSize: 0x24 }
  - { offsetInCU: 0x12194, offset: 0x12194, size: 0x8, addend: 0x0, symName: __ZNSt3__122__compressed_pair_elemINS_19__map_value_compareINS_6vectorINS2_IiNS_9allocatorIiEEEENS3_IS5_EEEENS_12__value_typeIS7_iEENS_4lessIS7_EELb1EEELi1ELb1EEC2B8ue170006IRKSC_vEEOT_, symObjAddr: 0x3914, symBinAddr: 0x1000062F0, symSize: 0x18 }
  - { offsetInCU: 0x121D6, offset: 0x121D6, size: 0x8, addend: 0x0, symName: __ZNSt3__114pointer_traitsIPNS_15__tree_end_nodeIPNS_16__tree_node_baseIPvEEEEE10pointer_toB8ue170006ERS6_, symObjAddr: 0x392C, symBinAddr: 0x100006308, symSize: 0x14 }
  - { offsetInCU: 0x121F9, offset: 0x121F9, size: 0x8, addend: 0x0, symName: __ZNSt3__117__compressed_pairINS_15__tree_end_nodeIPNS_16__tree_node_baseIPvEEEENS_9allocatorINS_11__tree_nodeINS_12__value_typeINS_6vectorINSA_IiNS7_IiEEEENS7_ISC_EEEEiEES3_EEEEE5firstB8ue170006Ev, symObjAddr: 0x3940, symBinAddr: 0x10000631C, symSize: 0x24 }
  - { offsetInCU: 0x1221F, offset: 0x1221F, size: 0x8, addend: 0x0, symName: __ZNSt3__122__compressed_pair_elemINS_15__tree_end_nodeIPNS_16__tree_node_baseIPvEEEELi0ELb0EE5__getB8ue170006Ev, symObjAddr: 0x3964, symBinAddr: 0x100006340, symSize: 0x14 }
  - { offsetInCU: 0x12245, offset: 0x12245, size: 0x8, addend: 0x0, symName: __ZNSt3__13mapINS_6vectorINS1_IiNS_9allocatorIiEEEENS2_IS4_EEEEiNS_4lessIS6_EENS2_INS_4pairIKS6_iEEEEED2B8ue170006Ev, symObjAddr: 0x3978, symBinAddr: 0x100006354, symSize: 0x2C }
  - { offsetInCU: 0x1226F, offset: 0x1226F, size: 0x8, addend: 0x0, symName: __ZNSt3__16__treeINS_12__value_typeINS_6vectorINS2_IiNS_9allocatorIiEEEENS3_IS5_EEEEiEENS_19__map_value_compareIS7_S8_NS_4lessIS7_EELb1EEENS3_IS8_EEED1Ev, symObjAddr: 0x39A4, symBinAddr: 0x100006380, symSize: 0x2C }
  - { offsetInCU: 0x1229B, offset: 0x1229B, size: 0x8, addend: 0x0, symName: __ZNSt3__16__treeINS_12__value_typeINS_6vectorINS2_IiNS_9allocatorIiEEEENS3_IS5_EEEEiEENS_19__map_value_compareIS7_S8_NS_4lessIS7_EELb1EEENS3_IS8_EEED2Ev, symObjAddr: 0x39D0, symBinAddr: 0x1000063AC, symSize: 0x38 }
  - { offsetInCU: 0x122C7, offset: 0x122C7, size: 0x8, addend: 0x0, symName: __ZNSt3__16__treeINS_12__value_typeINS_6vectorINS2_IiNS_9allocatorIiEEEENS3_IS5_EEEEiEENS_19__map_value_compareIS7_S8_NS_4lessIS7_EELb1EEENS3_IS8_EEE7destroyEPNS_11__tree_nodeIS8_PvEE, symObjAddr: 0x3A08, symBinAddr: 0x1000063E4, symSize: 0xC0 }
  - { offsetInCU: 0x1231B, offset: 0x1231B, size: 0x8, addend: 0x0, symName: __ZNKSt3__16__treeINS_12__value_typeINS_6vectorINS2_IiNS_9allocatorIiEEEENS3_IS5_EEEEiEENS_19__map_value_compareIS7_S8_NS_4lessIS7_EELb1EEENS3_IS8_EEE6__rootB8ue170006Ev, symObjAddr: 0x3AC8, symBinAddr: 0x1000064A4, symSize: 0x28 }
  - { offsetInCU: 0x12341, offset: 0x12341, size: 0x8, addend: 0x0, symName: __ZNSt3__16__treeINS_12__value_typeINS_6vectorINS2_IiNS_9allocatorIiEEEENS3_IS5_EEEEiEENS_19__map_value_compareIS7_S8_NS_4lessIS7_EELb1EEENS3_IS8_EEE12__node_allocB8ue170006Ev, symObjAddr: 0x3AF0, symBinAddr: 0x1000064CC, symSize: 0x28 }
  - { offsetInCU: 0x12367, offset: 0x12367, size: 0x8, addend: 0x0, symName: __ZNSt3__116allocator_traitsINS_9allocatorINS_11__tree_nodeINS_12__value_typeINS_6vectorINS4_IiNS1_IiEEEENS1_IS6_EEEEiEEPvEEEEE7destroyB8ue170006INS_4pairIKS8_iEEvvEEvRSC_PT_, symObjAddr: 0x3B18, symBinAddr: 0x1000064F4, symSize: 0x28 }
  - { offsetInCU: 0x123A2, offset: 0x123A2, size: 0x8, addend: 0x0, symName: __ZNSt3__122__tree_key_value_typesINS_12__value_typeINS_6vectorINS2_IiNS_9allocatorIiEEEENS3_IS5_EEEEiEEE9__get_ptrB8ue170006ERS8_, symObjAddr: 0x3B40, symBinAddr: 0x10000651C, symSize: 0x24 }
  - { offsetInCU: 0x123C6, offset: 0x123C6, size: 0x8, addend: 0x0, symName: __ZNSt3__116allocator_traitsINS_9allocatorINS_11__tree_nodeINS_12__value_typeINS_6vectorINS4_IiNS1_IiEEEENS1_IS6_EEEEiEEPvEEEEE10deallocateB8ue170006ERSC_PSB_m, symObjAddr: 0x3B64, symBinAddr: 0x100006540, symSize: 0x34 }
  - { offsetInCU: 0x12408, offset: 0x12408, size: 0x8, addend: 0x0, symName: __ZNSt3__117__compressed_pairINS_15__tree_end_nodeIPNS_16__tree_node_baseIPvEEEENS_9allocatorINS_11__tree_nodeINS_12__value_typeINS_6vectorINSA_IiNS7_IiEEEENS7_ISC_EEEEiEES3_EEEEE6secondB8ue170006Ev, symObjAddr: 0x3B98, symBinAddr: 0x100006574, symSize: 0x24 }
  - { offsetInCU: 0x1242E, offset: 0x1242E, size: 0x8, addend: 0x0, symName: __ZNSt3__122__compressed_pair_elemINS_9allocatorINS_11__tree_nodeINS_12__value_typeINS_6vectorINS4_IiNS1_IiEEEENS1_IS6_EEEEiEEPvEEEELi1ELb1EE5__getB8ue170006Ev, symObjAddr: 0x3BBC, symBinAddr: 0x100006598, symSize: 0x14 }
  - { offsetInCU: 0x12454, offset: 0x12454, size: 0x8, addend: 0x0, symName: __ZNSt3__14pairIKNS_6vectorINS1_IiNS_9allocatorIiEEEENS2_IS4_EEEEiED1Ev, symObjAddr: 0x3BD0, symBinAddr: 0x1000065AC, symSize: 0x2C }
  - { offsetInCU: 0x12480, offset: 0x12480, size: 0x8, addend: 0x0, symName: __ZNSt3__14pairIKNS_6vectorINS1_IiNS_9allocatorIiEEEENS2_IS4_EEEEiED2Ev, symObjAddr: 0x3BFC, symBinAddr: 0x1000065D8, symSize: 0x2C }
  - { offsetInCU: 0x124AC, offset: 0x124AC, size: 0x8, addend: 0x0, symName: __ZNSt3__112__value_typeINS_6vectorINS1_IiNS_9allocatorIiEEEENS2_IS4_EEEEiE11__get_valueB8ue170006Ev, symObjAddr: 0x3C28, symBinAddr: 0x100006604, symSize: 0x14 }
  - { offsetInCU: 0x124D2, offset: 0x124D2, size: 0x8, addend: 0x0, symName: __ZNSt3__19allocatorINS_11__tree_nodeINS_12__value_typeINS_6vectorINS3_IiNS0_IiEEEENS0_IS5_EEEEiEEPvEEE10deallocateB8ue170006EPSA_m, symObjAddr: 0x3C3C, symBinAddr: 0x100006618, symSize: 0x70 }
  - { offsetInCU: 0x12514, offset: 0x12514, size: 0x8, addend: 0x0, symName: __ZNKSt3__16__treeINS_12__value_typeINS_6vectorINS2_IiNS_9allocatorIiEEEENS3_IS5_EEEEiEENS_19__map_value_compareIS7_S8_NS_4lessIS7_EELb1EEENS3_IS8_EEE10__end_nodeB8ue170006Ev, symObjAddr: 0x3CAC, symBinAddr: 0x100006688, symSize: 0x2C }
  - { offsetInCU: 0x1253A, offset: 0x1253A, size: 0x8, addend: 0x0, symName: __ZNKSt3__117__compressed_pairINS_15__tree_end_nodeIPNS_16__tree_node_baseIPvEEEENS_9allocatorINS_11__tree_nodeINS_12__value_typeINS_6vectorINSA_IiNS7_IiEEEENS7_ISC_EEEEiEES3_EEEEE5firstB8ue170006Ev, symObjAddr: 0x3CD8, symBinAddr: 0x1000066B4, symSize: 0x24 }
  - { offsetInCU: 0x12560, offset: 0x12560, size: 0x8, addend: 0x0, symName: __ZNKSt3__122__compressed_pair_elemINS_15__tree_end_nodeIPNS_16__tree_node_baseIPvEEEELi0ELb0EE5__getB8ue170006Ev, symObjAddr: 0x3CFC, symBinAddr: 0x1000066D8, symSize: 0x14 }
  - { offsetInCU: 0x12586, offset: 0x12586, size: 0x8, addend: 0x0, symName: __ZNSt3__16vectorINS0_IiNS_9allocatorIiEEEENS1_IS3_EEEC2B8ue170006Ev, symObjAddr: 0x3D10, symBinAddr: 0x1000066EC, symSize: 0x44 }
  - { offsetInCU: 0x125B0, offset: 0x125B0, size: 0x8, addend: 0x0, symName: __ZNSt3__16__treeINS_12__value_typeINS_6vectorINS2_IiNS_9allocatorIiEEEENS3_IS5_EEEEiEENS_19__map_value_compareIS7_S8_NS_4lessIS7_EELb1EEENS3_IS8_EEE4findIS7_EENS_15__tree_iteratorIS8_PNS_11__tree_nodeIS8_PvEElEERKT_, symObjAddr: 0x3D54, symBinAddr: 0x100006730, symSize: 0xF8 }
  - { offsetInCU: 0x125FF, offset: 0x125FF, size: 0x8, addend: 0x0, symName: __ZNSt3__114__map_iteratorINS_15__tree_iteratorINS_12__value_typeINS_6vectorINS3_IiNS_9allocatorIiEEEENS4_IS6_EEEEiEEPNS_11__tree_nodeIS9_PvEElEEEC1B8ue170006ESE_, symObjAddr: 0x3E4C, symBinAddr: 0x100006828, symSize: 0x34 }
  - { offsetInCU: 0x12638, offset: 0x12638, size: 0x8, addend: 0x0, symName: __ZNSt3__16__treeINS_12__value_typeINS_6vectorINS2_IiNS_9allocatorIiEEEENS3_IS5_EEEEiEENS_19__map_value_compareIS7_S8_NS_4lessIS7_EELb1EEENS3_IS8_EEE13__lower_boundIS7_EENS_15__tree_iteratorIS8_PNS_11__tree_nodeIS8_PvEElEERKT_SK_PNS_15__tree_end_nodeIPNS_16__tree_node_baseISI_EEEE, symObjAddr: 0x3E80, symBinAddr: 0x10000685C, symSize: 0xA4 }
  - { offsetInCU: 0x12696, offset: 0x12696, size: 0x8, addend: 0x0, symName: __ZNSt3__16__treeINS_12__value_typeINS_6vectorINS2_IiNS_9allocatorIiEEEENS3_IS5_EEEEiEENS_19__map_value_compareIS7_S8_NS_4lessIS7_EELb1EEENS3_IS8_EEE3endB8ue170006Ev, symObjAddr: 0x3F58, symBinAddr: 0x100006934, symSize: 0x34 }
  - { offsetInCU: 0x126BC, offset: 0x126BC, size: 0x8, addend: 0x0, symName: __ZNSt3__16__treeINS_12__value_typeINS_6vectorINS2_IiNS_9allocatorIiEEEENS3_IS5_EEEEiEENS_19__map_value_compareIS7_S8_NS_4lessIS7_EELb1EEENS3_IS8_EEE10value_compB8ue170006Ev, symObjAddr: 0x3F8C, symBinAddr: 0x100006968, symSize: 0x28 }
  - { offsetInCU: 0x126E2, offset: 0x126E2, size: 0x8, addend: 0x0, symName: __ZNKSt3__119__map_value_compareINS_6vectorINS1_IiNS_9allocatorIiEEEENS2_IS4_EEEENS_12__value_typeIS6_iEENS_4lessIS6_EELb1EEclB8ue170006ERKS6_RKS8_, symObjAddr: 0x3FB4, symBinAddr: 0x100006990, symSize: 0x50 }
  - { offsetInCU: 0x12726, offset: 0x12726, size: 0x8, addend: 0x0, symName: __ZNKSt3__115__tree_iteratorINS_12__value_typeINS_6vectorINS2_IiNS_9allocatorIiEEEENS3_IS5_EEEEiEEPNS_11__tree_nodeIS8_PvEElEdeB8ue170006Ev, symObjAddr: 0x4004, symBinAddr: 0x1000069E0, symSize: 0x28 }
  - { offsetInCU: 0x1274C, offset: 0x1274C, size: 0x8, addend: 0x0, symName: __ZNKSt3__119__map_value_compareINS_6vectorINS1_IiNS_9allocatorIiEEEENS2_IS4_EEEENS_12__value_typeIS6_iEENS_4lessIS6_EELb1EEclB8ue170006ERKS8_RKS6_, symObjAddr: 0x402C, symBinAddr: 0x100006A08, symSize: 0x48 }
  - { offsetInCU: 0x12790, offset: 0x12790, size: 0x8, addend: 0x0, symName: __ZNSt3__115__tree_iteratorINS_12__value_typeINS_6vectorINS2_IiNS_9allocatorIiEEEENS3_IS5_EEEEiEEPNS_11__tree_nodeIS8_PvEElEC1B8ue170006EPNS_15__tree_end_nodeIPNS_16__tree_node_baseISA_EEEE, symObjAddr: 0x4074, symBinAddr: 0x100006A50, symSize: 0x34 }
  - { offsetInCU: 0x127C9, offset: 0x127C9, size: 0x8, addend: 0x0, symName: __ZNKSt3__14lessINS_6vectorINS1_IiNS_9allocatorIiEEEENS2_IS4_EEEEEclB8ue170006ERKS6_S9_, symObjAddr: 0x40A8, symBinAddr: 0x100006A84, symSize: 0x34 }
  - { offsetInCU: 0x1280D, offset: 0x1280D, size: 0x8, addend: 0x0, symName: __ZNKSt3__112__value_typeINS_6vectorINS1_IiNS_9allocatorIiEEEENS2_IS4_EEEEiE11__get_valueB8ue170006Ev, symObjAddr: 0x40DC, symBinAddr: 0x100006AB8, symSize: 0x14 }
  - { offsetInCU: 0x12833, offset: 0x12833, size: 0x8, addend: 0x0, symName: __ZNKSt3__16vectorINS0_IiNS_9allocatorIiEEEENS1_IS3_EEE5beginB8ue170006Ev, symObjAddr: 0x41B8, symBinAddr: 0x100006B94, symSize: 0x30 }
  - { offsetInCU: 0x1285B, offset: 0x1285B, size: 0x8, addend: 0x0, symName: __ZNKSt3__16vectorINS0_IiNS_9allocatorIiEEEENS1_IS3_EEE3endB8ue170006Ev, symObjAddr: 0x41E8, symBinAddr: 0x100006BC4, symSize: 0x30 }
  - { offsetInCU: 0x12883, offset: 0x12883, size: 0x8, addend: 0x0, symName: __ZNKSt3__16__lessIvvEclB8ue170006INS_6vectorIiNS_9allocatorIiEEEES6_EEbRKT_RKT0_, symObjAddr: 0x4414, symBinAddr: 0x100006DF0, symSize: 0x34 }
  - { offsetInCU: 0x128D7, offset: 0x128D7, size: 0x8, addend: 0x0, symName: __ZNKSt3__111__wrap_iterIPKNS_6vectorIiNS_9allocatorIiEEEEEdeB8ue170006Ev, symObjAddr: 0x4448, symBinAddr: 0x100006E24, symSize: 0x18 }
  - { offsetInCU: 0x128FD, offset: 0x128FD, size: 0x8, addend: 0x0, symName: __ZNSt3__111__wrap_iterIPKNS_6vectorIiNS_9allocatorIiEEEEEppB8ue170006Ev, symObjAddr: 0x4460, symBinAddr: 0x100006E3C, symSize: 0x20 }
  - { offsetInCU: 0x12923, offset: 0x12923, size: 0x8, addend: 0x0, symName: __ZNKSt3__111__wrap_iterIPKNS_6vectorIiNS_9allocatorIiEEEEE4baseB8ue170006Ev, symObjAddr: 0x4480, symBinAddr: 0x100006E5C, symSize: 0x18 }
  - { offsetInCU: 0x12949, offset: 0x12949, size: 0x8, addend: 0x0, symName: __ZNKSt3__16vectorIiNS_9allocatorIiEEE5beginB8ue170006Ev, symObjAddr: 0x4560, symBinAddr: 0x100006F3C, symSize: 0x30 }
  - { offsetInCU: 0x12971, offset: 0x12971, size: 0x8, addend: 0x0, symName: __ZNKSt3__16vectorIiNS_9allocatorIiEEE3endB8ue170006Ev, symObjAddr: 0x4590, symBinAddr: 0x100006F6C, symSize: 0x30 }
  - { offsetInCU: 0x12999, offset: 0x12999, size: 0x8, addend: 0x0, symName: __ZNKSt3__16__lessIvvEclB8ue170006IiiEEbRKT_RKT0_, symObjAddr: 0x47BC, symBinAddr: 0x100007198, symSize: 0x34 }
  - { offsetInCU: 0x129ED, offset: 0x129ED, size: 0x8, addend: 0x0, symName: __ZNKSt3__111__wrap_iterIPKiEdeB8ue170006Ev, symObjAddr: 0x47F0, symBinAddr: 0x1000071CC, symSize: 0x18 }
  - { offsetInCU: 0x12A13, offset: 0x12A13, size: 0x8, addend: 0x0, symName: __ZNSt3__111__wrap_iterIPKiEppB8ue170006Ev, symObjAddr: 0x4808, symBinAddr: 0x1000071E4, symSize: 0x20 }
  - { offsetInCU: 0x12A39, offset: 0x12A39, size: 0x8, addend: 0x0, symName: __ZNKSt3__111__wrap_iterIPKiE4baseB8ue170006Ev, symObjAddr: 0x4828, symBinAddr: 0x100007204, symSize: 0x18 }
  - { offsetInCU: 0x12A5F, offset: 0x12A5F, size: 0x8, addend: 0x0, symName: __ZNKSt3__16vectorIiNS_9allocatorIiEEE11__make_iterB8ue170006EPKi, symObjAddr: 0x4840, symBinAddr: 0x10000721C, symSize: 0x30 }
  - { offsetInCU: 0x12A94, offset: 0x12A94, size: 0x8, addend: 0x0, symName: __ZNSt3__111__wrap_iterIPKiEC1B8ue170006ES2_, symObjAddr: 0x4870, symBinAddr: 0x10000724C, symSize: 0x34 }
  - { offsetInCU: 0x12ACC, offset: 0x12ACC, size: 0x8, addend: 0x0, symName: __ZNSt3__111__wrap_iterIPKiEC2B8ue170006ES2_, symObjAddr: 0x48A4, symBinAddr: 0x100007280, symSize: 0x20 }
  - { offsetInCU: 0x12B04, offset: 0x12B04, size: 0x8, addend: 0x0, symName: __ZNKSt3__16vectorINS0_IiNS_9allocatorIiEEEENS1_IS3_EEE11__make_iterB8ue170006EPKS3_, symObjAddr: 0x48C4, symBinAddr: 0x1000072A0, symSize: 0x30 }
  - { offsetInCU: 0x12B39, offset: 0x12B39, size: 0x8, addend: 0x0, symName: __ZNSt3__111__wrap_iterIPKNS_6vectorIiNS_9allocatorIiEEEEEC1B8ue170006ES6_, symObjAddr: 0x48F4, symBinAddr: 0x1000072D0, symSize: 0x34 }
  - { offsetInCU: 0x12B71, offset: 0x12B71, size: 0x8, addend: 0x0, symName: __ZNSt3__111__wrap_iterIPKNS_6vectorIiNS_9allocatorIiEEEEEC2B8ue170006ES6_, symObjAddr: 0x4928, symBinAddr: 0x100007304, symSize: 0x20 }
  - { offsetInCU: 0x12BA9, offset: 0x12BA9, size: 0x8, addend: 0x0, symName: __ZNSt3__115__tree_iteratorINS_12__value_typeINS_6vectorINS2_IiNS_9allocatorIiEEEENS3_IS5_EEEEiEEPNS_11__tree_nodeIS8_PvEElEC2B8ue170006EPNS_15__tree_end_nodeIPNS_16__tree_node_baseISA_EEEE, symObjAddr: 0x4948, symBinAddr: 0x100007324, symSize: 0x20 }
  - { offsetInCU: 0x12BE2, offset: 0x12BE2, size: 0x8, addend: 0x0, symName: __ZNSt3__117__compressed_pairImNS_19__map_value_compareINS_6vectorINS2_IiNS_9allocatorIiEEEENS3_IS5_EEEENS_12__value_typeIS7_iEENS_4lessIS7_EELb1EEEE6secondB8ue170006Ev, symObjAddr: 0x4998, symBinAddr: 0x100007374, symSize: 0x24 }
  - { offsetInCU: 0x12C08, offset: 0x12C08, size: 0x8, addend: 0x0, symName: __ZNSt3__122__compressed_pair_elemINS_19__map_value_compareINS_6vectorINS2_IiNS_9allocatorIiEEEENS3_IS5_EEEENS_12__value_typeIS7_iEENS_4lessIS7_EELb1EEELi1ELb1EE5__getB8ue170006Ev, symObjAddr: 0x49BC, symBinAddr: 0x100007398, symSize: 0x14 }
  - { offsetInCU: 0x12C2E, offset: 0x12C2E, size: 0x8, addend: 0x0, symName: __ZNKSt3__115__tree_iteratorINS_12__value_typeINS_6vectorINS2_IiNS_9allocatorIiEEEENS3_IS5_EEEEiEEPNS_11__tree_nodeIS8_PvEElE8__get_npB8ue170006Ev, symObjAddr: 0x49D0, symBinAddr: 0x1000073AC, symSize: 0x18 }
  - { offsetInCU: 0x12C54, offset: 0x12C54, size: 0x8, addend: 0x0, symName: __ZNSt3__114__map_iteratorINS_15__tree_iteratorINS_12__value_typeINS_6vectorINS3_IiNS_9allocatorIiEEEENS4_IS6_EEEEiEEPNS_11__tree_nodeIS9_PvEElEEEC2B8ue170006ESE_, symObjAddr: 0x49E8, symBinAddr: 0x1000073C4, symSize: 0x20 }
  - { offsetInCU: 0x12C97, offset: 0x12C97, size: 0x8, addend: 0x0, symName: __ZNKSt3__110__equal_toclB8ue170006INS_6vectorIiNS_9allocatorIiEEEES5_EEbRKT_RKT0_, symObjAddr: 0x4BA4, symBinAddr: 0x100007580, symSize: 0x34 }
  - { offsetInCU: 0x12CEB, offset: 0x12CEB, size: 0x8, addend: 0x0, symName: __ZNSt3__118__unwrap_iter_implINS_11__wrap_iterIPKiEELb1EE8__unwrapB8ue170006ES4_, symObjAddr: 0x4EA4, symBinAddr: 0x100007880, symSize: 0x28 }
  - { offsetInCU: 0x12D18, offset: 0x12D18, size: 0x8, addend: 0x0, symName: __ZNSt3__119__to_address_helperINS_11__wrap_iterIPKiEEvE6__callB8ue170006ERKS4_, symObjAddr: 0x4EF0, symBinAddr: 0x1000078CC, symSize: 0x30 }
  - { offsetInCU: 0x12D3B, offset: 0x12D3B, size: 0x8, addend: 0x0, symName: __ZNSt3__114pointer_traitsINS_11__wrap_iterIPKiEEE10to_addressB8ue170006ES4_, symObjAddr: 0x4F20, symBinAddr: 0x1000078FC, symSize: 0x2C }
  - { offsetInCU: 0x12D5E, offset: 0x12D5E, size: 0x8, addend: 0x0, symName: __ZNSt3__118__unwrap_iter_implINS_11__wrap_iterIPKNS_6vectorIiNS_9allocatorIiEEEEEELb1EE8__unwrapB8ue170006ES8_, symObjAddr: 0x4F60, symBinAddr: 0x10000793C, symSize: 0x28 }
  - { offsetInCU: 0x12D8B, offset: 0x12D8B, size: 0x8, addend: 0x0, symName: __ZNSt3__119__to_address_helperINS_11__wrap_iterIPKNS_6vectorIiNS_9allocatorIiEEEEEEvE6__callB8ue170006ERKS8_, symObjAddr: 0x4FAC, symBinAddr: 0x100007988, symSize: 0x30 }
  - { offsetInCU: 0x12DAE, offset: 0x12DAE, size: 0x8, addend: 0x0, symName: __ZNSt3__114pointer_traitsINS_11__wrap_iterIPKNS_6vectorIiNS_9allocatorIiEEEEEEE10to_addressB8ue170006ES8_, symObjAddr: 0x4FDC, symBinAddr: 0x1000079B8, symSize: 0x2C }
  - { offsetInCU: 0x12DD1, offset: 0x12DD1, size: 0x8, addend: 0x0, symName: __ZNSt3__16__treeINS_12__value_typeINS_6vectorINS2_IiNS_9allocatorIiEEEENS3_IS5_EEEEiEENS_19__map_value_compareIS7_S8_NS_4lessIS7_EELb1EEENS3_IS8_EEE12__find_equalIS7_EERPNS_16__tree_node_baseIPvEERPNS_15__tree_end_nodeISJ_EERKT_, symObjAddr: 0x501C, symBinAddr: 0x1000079F8, symSize: 0x184 }
  - { offsetInCU: 0x12E3E, offset: 0x12E3E, size: 0x8, addend: 0x0, symName: __ZNSt3__13mapINS_6vectorINS1_IiNS_9allocatorIiEEEENS2_IS4_EEEEiNS_4lessIS6_EENS2_INS_4pairIKS6_iEEEEE25__construct_node_with_keyERSA_, symObjAddr: 0x51A0, symBinAddr: 0x100007B7C, symSize: 0x144 }
  - { offsetInCU: 0x12E94, offset: 0x12E94, size: 0x8, addend: 0x0, symName: __ZNSt3__16__treeINS_12__value_typeINS_6vectorINS2_IiNS_9allocatorIiEEEENS3_IS5_EEEEiEENS_19__map_value_compareIS7_S8_NS_4lessIS7_EELb1EEENS3_IS8_EEE16__insert_node_atEPNS_15__tree_end_nodeIPNS_16__tree_node_baseIPvEEEERSJ_SJ_, symObjAddr: 0x52E4, symBinAddr: 0x100007CC0, symSize: 0xCC }
  - { offsetInCU: 0x12EE9, offset: 0x12EE9, size: 0x8, addend: 0x0, symName: __ZNKSt3__110unique_ptrINS_11__tree_nodeINS_12__value_typeINS_6vectorINS3_IiNS_9allocatorIiEEEENS4_IS6_EEEEiEEPvEENS_21__map_node_destructorINS4_ISB_EEEEE3getB8ue170006Ev, symObjAddr: 0x53B0, symBinAddr: 0x100007D8C, symSize: 0x28 }
  - { offsetInCU: 0x12F0F, offset: 0x12F0F, size: 0x8, addend: 0x0, symName: __ZNSt3__110unique_ptrINS_11__tree_nodeINS_12__value_typeINS_6vectorINS3_IiNS_9allocatorIiEEEENS4_IS6_EEEEiEEPvEENS_21__map_node_destructorINS4_ISB_EEEEE7releaseB8ue170006Ev, symObjAddr: 0x53D8, symBinAddr: 0x100007DB4, symSize: 0x44 }
  - { offsetInCU: 0x12F44, offset: 0x12F44, size: 0x8, addend: 0x0, symName: __ZNSt3__110unique_ptrINS_11__tree_nodeINS_12__value_typeINS_6vectorINS3_IiNS_9allocatorIiEEEENS4_IS6_EEEEiEEPvEENS_21__map_node_destructorINS4_ISB_EEEEED1B8ue170006Ev, symObjAddr: 0x541C, symBinAddr: 0x100007DF8, symSize: 0x2C }
  - { offsetInCU: 0x12F6E, offset: 0x12F6E, size: 0x8, addend: 0x0, symName: __ZNKSt3__16__treeINS_12__value_typeINS_6vectorINS2_IiNS_9allocatorIiEEEENS3_IS5_EEEEiEENS_19__map_value_compareIS7_S8_NS_4lessIS7_EELb1EEENS3_IS8_EEE10__root_ptrB8ue170006Ev, symObjAddr: 0x5448, symBinAddr: 0x100007E24, symSize: 0x24 }
  - { offsetInCU: 0x12F94, offset: 0x12F94, size: 0x8, addend: 0x0, symName: __ZNSt3__116allocator_traitsINS_9allocatorINS_11__tree_nodeINS_12__value_typeINS_6vectorINS4_IiNS1_IiEEEENS1_IS6_EEEEiEEPvEEEEE8allocateB8ue170006ERSC_m, symObjAddr: 0x546C, symBinAddr: 0x100007E48, symSize: 0x2C }
  - { offsetInCU: 0x12FC7, offset: 0x12FC7, size: 0x8, addend: 0x0, symName: __ZNSt3__121__map_node_destructorINS_9allocatorINS_11__tree_nodeINS_12__value_typeINS_6vectorINS4_IiNS1_IiEEEENS1_IS6_EEEEiEEPvEEEEEC1B8ue170006ERSC_, symObjAddr: 0x5498, symBinAddr: 0x100007E74, symSize: 0x34 }
  - { offsetInCU: 0x13005, offset: 0x13005, size: 0x8, addend: 0x0, symName: __ZNSt3__110unique_ptrINS_11__tree_nodeINS_12__value_typeINS_6vectorINS3_IiNS_9allocatorIiEEEENS4_IS6_EEEEiEEPvEENS_21__map_node_destructorINS4_ISB_EEEEEC1B8ue170006ILb1EvEEPSB_NS_16__dependent_typeINS_27__unique_ptr_deleter_sfinaeISE_EEXT_EE20__good_rval_ref_typeE, symObjAddr: 0x54CC, symBinAddr: 0x100007EA8, symSize: 0x3C }
  - { offsetInCU: 0x1305B, offset: 0x1305B, size: 0x8, addend: 0x0, symName: __ZNSt3__116allocator_traitsINS_9allocatorINS_11__tree_nodeINS_12__value_typeINS_6vectorINS4_IiNS1_IiEEEENS1_IS6_EEEEiEEPvEEEEE9constructB8ue170006IKS8_JRSF_EvEEvRSC_PT_DpOT0_, symObjAddr: 0x5508, symBinAddr: 0x100007EE4, symSize: 0x34 }
  - { offsetInCU: 0x130B2, offset: 0x130B2, size: 0x8, addend: 0x0, symName: __ZNKSt3__110unique_ptrINS_11__tree_nodeINS_12__value_typeINS_6vectorINS3_IiNS_9allocatorIiEEEENS4_IS6_EEEEiEEPvEENS_21__map_node_destructorINS4_ISB_EEEEEptB8ue170006Ev, symObjAddr: 0x553C, symBinAddr: 0x100007F18, symSize: 0x28 }
  - { offsetInCU: 0x130D8, offset: 0x130D8, size: 0x8, addend: 0x0, symName: __ZNSt3__110unique_ptrINS_11__tree_nodeINS_12__value_typeINS_6vectorINS3_IiNS_9allocatorIiEEEENS4_IS6_EEEEiEEPvEENS_21__map_node_destructorINS4_ISB_EEEEE11get_deleterB8ue170006Ev, symObjAddr: 0x5564, symBinAddr: 0x100007F40, symSize: 0x24 }
  - { offsetInCU: 0x130FE, offset: 0x130FE, size: 0x8, addend: 0x0, symName: __ZNSt3__116allocator_traitsINS_9allocatorINS_11__tree_nodeINS_12__value_typeINS_6vectorINS4_IiNS1_IiEEEENS1_IS6_EEEEiEEPvEEEEE9constructB8ue170006IiJEvEEvRSC_PT_DpOT0_, symObjAddr: 0x5588, symBinAddr: 0x100007F64, symSize: 0x2C }
  - { offsetInCU: 0x13140, offset: 0x13140, size: 0x8, addend: 0x0, symName: __ZNSt3__19allocatorINS_11__tree_nodeINS_12__value_typeINS_6vectorINS3_IiNS0_IiEEEENS0_IS5_EEEEiEEPvEEE8allocateB8ue170006Em, symObjAddr: 0x55B4, symBinAddr: 0x100007F90, symSize: 0x84 }
  - { offsetInCU: 0x1317E, offset: 0x1317E, size: 0x8, addend: 0x0, symName: __ZNSt3__116allocator_traitsINS_9allocatorINS_11__tree_nodeINS_12__value_typeINS_6vectorINS4_IiNS1_IiEEEENS1_IS6_EEEEiEEPvEEEEE8max_sizeB8ue170006ISC_vEEmRKSC_, symObjAddr: 0x5638, symBinAddr: 0x100008014, symSize: 0x24 }
  - { offsetInCU: 0x131AC, offset: 0x131AC, size: 0x8, addend: 0x0, symName: __ZNKSt3__19allocatorINS_11__tree_nodeINS_12__value_typeINS_6vectorINS3_IiNS0_IiEEEENS0_IS5_EEEEiEEPvEEE8max_sizeB8ue170006Ev, symObjAddr: 0x565C, symBinAddr: 0x100008038, symSize: 0x14 }
  - { offsetInCU: 0x131D2, offset: 0x131D2, size: 0x8, addend: 0x0, symName: __ZNSt3__121__map_node_destructorINS_9allocatorINS_11__tree_nodeINS_12__value_typeINS_6vectorINS4_IiNS1_IiEEEENS1_IS6_EEEEiEEPvEEEEEC2B8ue170006ERSC_, symObjAddr: 0x5670, symBinAddr: 0x10000804C, symSize: 0x28 }
  - { offsetInCU: 0x1320B, offset: 0x1320B, size: 0x8, addend: 0x0, symName: __ZNSt3__110unique_ptrINS_11__tree_nodeINS_12__value_typeINS_6vectorINS3_IiNS_9allocatorIiEEEENS4_IS6_EEEEiEEPvEENS_21__map_node_destructorINS4_ISB_EEEEEC2B8ue170006ILb1EvEEPSB_NS_16__dependent_typeINS_27__unique_ptr_deleter_sfinaeISE_EEXT_EE20__good_rval_ref_typeE, symObjAddr: 0x5698, symBinAddr: 0x100008074, symSize: 0x5C }
  - { offsetInCU: 0x1325C, offset: 0x1325C, size: 0x8, addend: 0x0, symName: __ZNSt3__117__compressed_pairIPNS_11__tree_nodeINS_12__value_typeINS_6vectorINS3_IiNS_9allocatorIiEEEENS4_IS6_EEEEiEEPvEENS_21__map_node_destructorINS4_ISB_EEEEEC1B8ue170006IRSC_SF_EEOT_OT0_, symObjAddr: 0x56F4, symBinAddr: 0x1000080D0, symSize: 0x3C }
  - { offsetInCU: 0x132B4, offset: 0x132B4, size: 0x8, addend: 0x0, symName: __ZNSt3__117__compressed_pairIPNS_11__tree_nodeINS_12__value_typeINS_6vectorINS3_IiNS_9allocatorIiEEEENS4_IS6_EEEEiEEPvEENS_21__map_node_destructorINS4_ISB_EEEEEC2B8ue170006IRSC_SF_EEOT_OT0_, symObjAddr: 0x5730, symBinAddr: 0x10000810C, symSize: 0x48 }
  - { offsetInCU: 0x1330C, offset: 0x1330C, size: 0x8, addend: 0x0, symName: __ZNSt3__122__compressed_pair_elemIPNS_11__tree_nodeINS_12__value_typeINS_6vectorINS3_IiNS_9allocatorIiEEEENS4_IS6_EEEEiEEPvEELi0ELb0EEC2B8ue170006IRSC_vEEOT_, symObjAddr: 0x5778, symBinAddr: 0x100008154, symSize: 0x24 }
  - { offsetInCU: 0x1334E, offset: 0x1334E, size: 0x8, addend: 0x0, symName: __ZNSt3__122__compressed_pair_elemINS_21__map_node_destructorINS_9allocatorINS_11__tree_nodeINS_12__value_typeINS_6vectorINS5_IiNS2_IiEEEENS2_IS7_EEEEiEEPvEEEEEELi1ELb0EEC2B8ue170006ISE_vEEOT_, symObjAddr: 0x579C, symBinAddr: 0x100008178, symSize: 0x24 }
  - { offsetInCU: 0x13390, offset: 0x13390, size: 0x8, addend: 0x0, symName: __ZNSt3__19allocatorINS_11__tree_nodeINS_12__value_typeINS_6vectorINS3_IiNS0_IiEEEENS0_IS5_EEEEiEEPvEEE9constructB8ue170006IKS7_JRSD_EEEvPT_DpOT0_, symObjAddr: 0x57C0, symBinAddr: 0x10000819C, symSize: 0x30 }
  - { offsetInCU: 0x133E6, offset: 0x133E6, size: 0x8, addend: 0x0, symName: __ZNSt3__16vectorINS0_IiNS_9allocatorIiEEEENS1_IS3_EEEC1ERKS5_, symObjAddr: 0x57F0, symBinAddr: 0x1000081CC, symSize: 0x34 }
  - { offsetInCU: 0x13421, offset: 0x13421, size: 0x8, addend: 0x0, symName: __ZNSt3__16vectorINS0_IiNS_9allocatorIiEEEENS1_IS3_EEEC2ERKS5_, symObjAddr: 0x5824, symBinAddr: 0x100008200, symSize: 0x94 }
  - { offsetInCU: 0x1345C, offset: 0x1345C, size: 0x8, addend: 0x0, symName: __ZNSt3__116allocator_traitsINS_9allocatorINS_6vectorIiNS1_IiEEEEEEE37select_on_container_copy_constructionB8ue170006IS5_vvEES5_RKS5_, symObjAddr: 0x58B8, symBinAddr: 0x100008294, symSize: 0x10 }
  - { offsetInCU: 0x13490, offset: 0x13490, size: 0x8, addend: 0x0, symName: __ZNSt3__117__compressed_pairIPNS_6vectorIiNS_9allocatorIiEEEENS2_IS4_EEEC1B8ue170006IDnS6_EEOT_OT0_, symObjAddr: 0x58C8, symBinAddr: 0x1000082A4, symSize: 0x3C }
  - { offsetInCU: 0x134E8, offset: 0x134E8, size: 0x8, addend: 0x0, symName: __ZNSt3__16vectorINS0_IiNS_9allocatorIiEEEENS1_IS3_EEE16__init_with_sizeB8ue170006IPS3_S7_EEvT_T0_m, symObjAddr: 0x5904, symBinAddr: 0x1000082E0, symSize: 0xC0 }
  - { offsetInCU: 0x1355C, offset: 0x1355C, size: 0x8, addend: 0x0, symName: __ZNSt3__117__compressed_pairIPNS_6vectorIiNS_9allocatorIiEEEENS2_IS4_EEEC2B8ue170006IDnS6_EEOT_OT0_, symObjAddr: 0x59C4, symBinAddr: 0x1000083A0, symSize: 0x44 }
  - { offsetInCU: 0x135B4, offset: 0x135B4, size: 0x8, addend: 0x0, symName: __ZNSt3__122__compressed_pair_elemINS_9allocatorINS_6vectorIiNS1_IiEEEEEELi1ELb1EEC2B8ue170006IS5_vEEOT_, symObjAddr: 0x5A08, symBinAddr: 0x1000083E4, symSize: 0x18 }
  - { offsetInCU: 0x135F6, offset: 0x135F6, size: 0x8, addend: 0x0, symName: __ZNSt3__16vectorINS0_IiNS_9allocatorIiEEEENS1_IS3_EEE18__construct_at_endIPS3_S7_EEvT_T0_m, symObjAddr: 0x5A20, symBinAddr: 0x1000083FC, symSize: 0x94 }
  - { offsetInCU: 0x13685, offset: 0x13685, size: 0x8, addend: 0x0, symName: __ZNSt3__14pairIPNS_6vectorIiNS_9allocatorIiEEEES5_EC1B8ue170006ERKS5_S8_, symObjAddr: 0x5D3C, symBinAddr: 0x100008718, symSize: 0x3C }
  - { offsetInCU: 0x136CB, offset: 0x136CB, size: 0x8, addend: 0x0, symName: __ZNSt3__14pairIPNS_6vectorIiNS_9allocatorIiEEEES5_EC2B8ue170006ERKS5_S8_, symObjAddr: 0x5D78, symBinAddr: 0x100008754, symSize: 0x34 }
  - { offsetInCU: 0x13711, offset: 0x13711, size: 0x8, addend: 0x0, symName: __ZNSt3__129_AllocatorDestroyRangeReverseINS_9allocatorINS_6vectorIiNS1_IiEEEEEEPS4_EC1B8ue170006ERS5_RS6_S9_, symObjAddr: 0x5DF8, symBinAddr: 0x1000087D4, symSize: 0x44 }
  - { offsetInCU: 0x13768, offset: 0x13768, size: 0x8, addend: 0x0, symName: __ZNSt3__116allocator_traitsINS_9allocatorINS_6vectorIiNS1_IiEEEEEEE9constructB8ue170006IS4_JRS4_EvEEvRS5_PT_DpOT0_, symObjAddr: 0x5E3C, symBinAddr: 0x100008818, symSize: 0x34 }
  - { offsetInCU: 0x137BF, offset: 0x137BF, size: 0x8, addend: 0x0, symName: __ZNSt3__128__exception_guard_exceptionsINS_29_AllocatorDestroyRangeReverseINS_9allocatorINS_6vectorIiNS2_IiEEEEEEPS5_EEE10__completeB8ue170006Ev, symObjAddr: 0x5E70, symBinAddr: 0x10000884C, symSize: 0x1C }
  - { offsetInCU: 0x137E5, offset: 0x137E5, size: 0x8, addend: 0x0, symName: __ZNSt3__128__exception_guard_exceptionsINS_29_AllocatorDestroyRangeReverseINS_9allocatorINS_6vectorIiNS2_IiEEEEEEPS5_EEED1B8ue170006Ev, symObjAddr: 0x5E8C, symBinAddr: 0x100008868, symSize: 0x2C }
  - { offsetInCU: 0x1380F, offset: 0x1380F, size: 0x8, addend: 0x0, symName: __ZNSt3__128__exception_guard_exceptionsINS_29_AllocatorDestroyRangeReverseINS_9allocatorINS_6vectorIiNS2_IiEEEEEEPS5_EEEC1B8ue170006ES8_, symObjAddr: 0x5EB8, symBinAddr: 0x100008894, symSize: 0x34 }
  - { offsetInCU: 0x13848, offset: 0x13848, size: 0x8, addend: 0x0, symName: __ZNSt3__128__exception_guard_exceptionsINS_29_AllocatorDestroyRangeReverseINS_9allocatorINS_6vectorIiNS2_IiEEEEEEPS5_EEEC2B8ue170006ES8_, symObjAddr: 0x5EEC, symBinAddr: 0x1000088C8, symSize: 0x30 }
  - { offsetInCU: 0x13881, offset: 0x13881, size: 0x8, addend: 0x0, symName: __ZNSt3__129_AllocatorDestroyRangeReverseINS_9allocatorINS_6vectorIiNS1_IiEEEEEEPS4_EC2B8ue170006ERS5_RS6_S9_, symObjAddr: 0x5F1C, symBinAddr: 0x1000088F8, symSize: 0x38 }
  - { offsetInCU: 0x138D8, offset: 0x138D8, size: 0x8, addend: 0x0, symName: __ZNSt3__19allocatorINS_6vectorIiNS0_IiEEEEE9constructB8ue170006IS3_JRS3_EEEvPT_DpOT0_, symObjAddr: 0x5F54, symBinAddr: 0x100008930, symSize: 0x30 }
  - { offsetInCU: 0x1392E, offset: 0x1392E, size: 0x8, addend: 0x0, symName: __ZNSt3__128__exception_guard_exceptionsINS_29_AllocatorDestroyRangeReverseINS_9allocatorINS_6vectorIiNS2_IiEEEEEEPS5_EEED2B8ue170006Ev, symObjAddr: 0x5F84, symBinAddr: 0x100008960, symSize: 0x48 }
  - { offsetInCU: 0x13958, offset: 0x13958, size: 0x8, addend: 0x0, symName: __ZNKSt3__129_AllocatorDestroyRangeReverseINS_9allocatorINS_6vectorIiNS1_IiEEEEEEPS4_EclB8ue170006Ev, symObjAddr: 0x5FCC, symBinAddr: 0x1000089A8, symSize: 0x68 }
  - { offsetInCU: 0x1397E, offset: 0x1397E, size: 0x8, addend: 0x0, symName: __ZNSt3__116reverse_iteratorIPNS_6vectorIiNS_9allocatorIiEEEEEC1B8ue170006ES5_, symObjAddr: 0x60A4, symBinAddr: 0x100008A80, symSize: 0x34 }
  - { offsetInCU: 0x139B6, offset: 0x139B6, size: 0x8, addend: 0x0, symName: __ZNSt3__116reverse_iteratorIPNS_6vectorIiNS_9allocatorIiEEEEEppB8ue170006Ev, symObjAddr: 0x6144, symBinAddr: 0x100008B20, symSize: 0x20 }
  - { offsetInCU: 0x139DC, offset: 0x139DC, size: 0x8, addend: 0x0, symName: __ZNKSt3__116reverse_iteratorIPNS_6vectorIiNS_9allocatorIiEEEEE4baseB8ue170006Ev, symObjAddr: 0x6164, symBinAddr: 0x100008B40, symSize: 0x18 }
  - { offsetInCU: 0x13A07, offset: 0x13A07, size: 0x8, addend: 0x0, symName: __ZNSt3__119__to_address_helperINS_16reverse_iteratorIPNS_6vectorIiNS_9allocatorIiEEEEEEvE6__callB8ue170006ERKS7_, symObjAddr: 0x617C, symBinAddr: 0x100008B58, symSize: 0x4C }
  - { offsetInCU: 0x13A2A, offset: 0x13A2A, size: 0x8, addend: 0x0, symName: __ZNKSt3__116reverse_iteratorIPNS_6vectorIiNS_9allocatorIiEEEEEptB8ue170006Ev, symObjAddr: 0x61C8, symBinAddr: 0x100008BA4, symSize: 0x24 }
  - { offsetInCU: 0x13A50, offset: 0x13A50, size: 0x8, addend: 0x0, symName: __ZNKSt3__116reverse_iteratorIPNS_6vectorIiNS_9allocatorIiEEEEEdeB8ue170006Ev, symObjAddr: 0x61EC, symBinAddr: 0x100008BC8, symSize: 0x28 }
  - { offsetInCU: 0x13A84, offset: 0x13A84, size: 0x8, addend: 0x0, symName: __ZNSt3__116reverse_iteratorIPNS_6vectorIiNS_9allocatorIiEEEEEC2B8ue170006ES5_, symObjAddr: 0x6214, symBinAddr: 0x100008BF0, symSize: 0x28 }
  - { offsetInCU: 0x13ABC, offset: 0x13ABC, size: 0x8, addend: 0x0, symName: __ZNSt3__118__unwrap_iter_implIPNS_6vectorIiNS_9allocatorIiEEEELb1EE8__unwrapB8ue170006ES5_, symObjAddr: 0x623C, symBinAddr: 0x100008C18, symSize: 0x24 }
  - { offsetInCU: 0x13ADF, offset: 0x13ADF, size: 0x8, addend: 0x0, symName: __ZNSt3__118__unwrap_iter_implIPNS_6vectorIiNS_9allocatorIiEEEELb1EE8__rewrapB8ue170006ES5_S5_, symObjAddr: 0x6260, symBinAddr: 0x100008C3C, symSize: 0x58 }
  - { offsetInCU: 0x13B10, offset: 0x13B10, size: 0x8, addend: 0x0, symName: __ZNKSt3__117__compressed_pairIPNS_11__tree_nodeINS_12__value_typeINS_6vectorINS3_IiNS_9allocatorIiEEEENS4_IS6_EEEEiEEPvEENS_21__map_node_destructorINS4_ISB_EEEEE5firstB8ue170006Ev, symObjAddr: 0x62B8, symBinAddr: 0x100008C94, symSize: 0x24 }
  - { offsetInCU: 0x13B36, offset: 0x13B36, size: 0x8, addend: 0x0, symName: __ZNKSt3__122__compressed_pair_elemIPNS_11__tree_nodeINS_12__value_typeINS_6vectorINS3_IiNS_9allocatorIiEEEENS4_IS6_EEEEiEEPvEELi0ELb0EE5__getB8ue170006Ev, symObjAddr: 0x62DC, symBinAddr: 0x100008CB8, symSize: 0x14 }
  - { offsetInCU: 0x13B5C, offset: 0x13B5C, size: 0x8, addend: 0x0, symName: __ZNSt3__117__compressed_pairIPNS_11__tree_nodeINS_12__value_typeINS_6vectorINS3_IiNS_9allocatorIiEEEENS4_IS6_EEEEiEEPvEENS_21__map_node_destructorINS4_ISB_EEEEE6secondB8ue170006Ev, symObjAddr: 0x62F0, symBinAddr: 0x100008CCC, symSize: 0x28 }
  - { offsetInCU: 0x13B82, offset: 0x13B82, size: 0x8, addend: 0x0, symName: __ZNSt3__122__compressed_pair_elemINS_21__map_node_destructorINS_9allocatorINS_11__tree_nodeINS_12__value_typeINS_6vectorINS5_IiNS2_IiEEEENS2_IS7_EEEEiEEPvEEEEEELi1ELb0EE5__getB8ue170006Ev, symObjAddr: 0x6318, symBinAddr: 0x100008CF4, symSize: 0x14 }
  - { offsetInCU: 0x13BA8, offset: 0x13BA8, size: 0x8, addend: 0x0, symName: __ZNSt3__19allocatorINS_11__tree_nodeINS_12__value_typeINS_6vectorINS3_IiNS0_IiEEEENS0_IS5_EEEEiEEPvEEE9constructB8ue170006IiJEEEvPT_DpOT0_, symObjAddr: 0x632C, symBinAddr: 0x100008D08, symSize: 0x1C }
  - { offsetInCU: 0x13BEA, offset: 0x13BEA, size: 0x8, addend: 0x0, symName: __ZNSt3__16__treeINS_12__value_typeINS_6vectorINS2_IiNS_9allocatorIiEEEENS3_IS5_EEEEiEENS_19__map_value_compareIS7_S8_NS_4lessIS7_EELb1EEENS3_IS8_EEE4sizeB8ue170006Ev, symObjAddr: 0x6688, symBinAddr: 0x100009064, symSize: 0x28 }
  - { offsetInCU: 0x13C10, offset: 0x13C10, size: 0x8, addend: 0x0, symName: __ZNKSt3__116__tree_node_baseIPvE15__parent_unsafeB8ue170006Ev, symObjAddr: 0x66B0, symBinAddr: 0x10000908C, symSize: 0x18 }
  - { offsetInCU: 0x13C36, offset: 0x13C36, size: 0x8, addend: 0x0, symName: __ZNSt3__116__tree_node_baseIPvE12__set_parentB8ue170006EPS2_, symObjAddr: 0x68AC, symBinAddr: 0x100009288, symSize: 0x20 }
  - { offsetInCU: 0x13C6B, offset: 0x13C6B, size: 0x8, addend: 0x0, symName: __ZNSt3__117__compressed_pairImNS_19__map_value_compareINS_6vectorINS2_IiNS_9allocatorIiEEEENS3_IS5_EEEENS_12__value_typeIS7_iEENS_4lessIS7_EELb1EEEE5firstB8ue170006Ev, symObjAddr: 0x68CC, symBinAddr: 0x1000092A8, symSize: 0x24 }
  - { offsetInCU: 0x13C91, offset: 0x13C91, size: 0x8, addend: 0x0, symName: __ZNSt3__122__compressed_pair_elemImLi0ELb0EE5__getB8ue170006Ev, symObjAddr: 0x68F0, symBinAddr: 0x1000092CC, symSize: 0x14 }
  - { offsetInCU: 0x13CB7, offset: 0x13CB7, size: 0x8, addend: 0x0, symName: __ZNSt3__117__compressed_pairIPNS_11__tree_nodeINS_12__value_typeINS_6vectorINS3_IiNS_9allocatorIiEEEENS4_IS6_EEEEiEEPvEENS_21__map_node_destructorINS4_ISB_EEEEE5firstB8ue170006Ev, symObjAddr: 0x6904, symBinAddr: 0x1000092E0, symSize: 0x24 }
  - { offsetInCU: 0x13CDD, offset: 0x13CDD, size: 0x8, addend: 0x0, symName: __ZNSt3__122__compressed_pair_elemIPNS_11__tree_nodeINS_12__value_typeINS_6vectorINS3_IiNS_9allocatorIiEEEENS4_IS6_EEEEiEEPvEELi0ELb0EE5__getB8ue170006Ev, symObjAddr: 0x6928, symBinAddr: 0x100009304, symSize: 0x14 }
  - { offsetInCU: 0x13D03, offset: 0x13D03, size: 0x8, addend: 0x0, symName: __ZNSt3__110unique_ptrINS_11__tree_nodeINS_12__value_typeINS_6vectorINS3_IiNS_9allocatorIiEEEENS4_IS6_EEEEiEEPvEENS_21__map_node_destructorINS4_ISB_EEEEED2B8ue170006Ev, symObjAddr: 0x693C, symBinAddr: 0x100009318, symSize: 0x30 }
  - { offsetInCU: 0x13D2D, offset: 0x13D2D, size: 0x8, addend: 0x0, symName: __ZNSt3__110unique_ptrINS_11__tree_nodeINS_12__value_typeINS_6vectorINS3_IiNS_9allocatorIiEEEENS4_IS6_EEEEiEEPvEENS_21__map_node_destructorINS4_ISB_EEEEE5resetB8ue170006EPSB_, symObjAddr: 0x696C, symBinAddr: 0x100009348, symSize: 0x78 }
  - { offsetInCU: 0x13D71, offset: 0x13D71, size: 0x8, addend: 0x0, symName: __ZNSt3__121__map_node_destructorINS_9allocatorINS_11__tree_nodeINS_12__value_typeINS_6vectorINS4_IiNS1_IiEEEENS1_IS6_EEEEiEEPvEEEEEclB8ue170006EPSB_, symObjAddr: 0x69E4, symBinAddr: 0x1000093C0, symSize: 0xE4 }
  - { offsetInCU: 0x13DA6, offset: 0x13DA6, size: 0x8, addend: 0x0, symName: __ZNSt3__116allocator_traitsINS_9allocatorINS_11__tree_nodeINS_12__value_typeINS_6vectorINS4_IiNS1_IiEEEENS1_IS6_EEEEiEEPvEEEEE7destroyB8ue170006IivvEEvRSC_PT_, symObjAddr: 0x6AC8, symBinAddr: 0x1000094A4, symSize: 0x14 }
  - { offsetInCU: 0x13DE1, offset: 0x13DE1, size: 0x8, addend: 0x0, symName: __ZNSt3__116allocator_traitsINS_9allocatorINS_11__tree_nodeINS_12__value_typeINS_6vectorINS4_IiNS1_IiEEEENS1_IS6_EEEEiEEPvEEEEE7destroyB8ue170006IKS8_vvEEvRSC_PT_, symObjAddr: 0x6ADC, symBinAddr: 0x1000094B8, symSize: 0x28 }
  - { offsetInCU: 0x13E1C, offset: 0x13E1C, size: 0x8, addend: 0x0, symName: __ZNSt3__16vectorINS0_IiNS_9allocatorIiEEEENS1_IS3_EEE19__copy_assign_allocB8ue170006ERKS5_, symObjAddr: 0x6B04, symBinAddr: 0x1000094E0, symSize: 0x2C }
  - { offsetInCU: 0x13E51, offset: 0x13E51, size: 0x8, addend: 0x0, symName: __ZNSt3__16vectorINS0_IiNS_9allocatorIiEEEENS1_IS3_EEE6assignIPS3_Li0EEEvT_S8_, symObjAddr: 0x6B30, symBinAddr: 0x10000950C, symSize: 0x5C }
  - { offsetInCU: 0x13EA6, offset: 0x13EA6, size: 0x8, addend: 0x0, symName: __ZNSt3__16vectorINS0_IiNS_9allocatorIiEEEENS1_IS3_EEE19__copy_assign_allocB8ue170006ERKS5_NS_17integral_constantIbLb0EEE, symObjAddr: 0x6B8C, symBinAddr: 0x100009568, symSize: 0x14 }
  - { offsetInCU: 0x13EE4, offset: 0x13EE4, size: 0x8, addend: 0x0, symName: __ZNSt3__16vectorINS0_IiNS_9allocatorIiEEEENS1_IS3_EEE18__assign_with_sizeB8ue170006IPS3_S7_EEvT_T0_l, symObjAddr: 0x6BA0, symBinAddr: 0x10000957C, symSize: 0x164 }
  - { offsetInCU: 0x13F94, offset: 0x13F94, size: 0x8, addend: 0x0, symName: __ZNSt3__16vectorINS0_IiNS_9allocatorIiEEEENS1_IS3_EEE17__destruct_at_endB8ue170006EPS3_, symObjAddr: 0x6DE8, symBinAddr: 0x1000097C4, symSize: 0x4C }
  - { offsetInCU: 0x13FD8, offset: 0x13FD8, size: 0x8, addend: 0x0, symName: __ZNSt3__16vectorINS0_IiNS_9allocatorIiEEEENS1_IS3_EEE13__vdeallocateEv, symObjAddr: 0x6E34, symBinAddr: 0x100009810, symSize: 0x94 }
  - { offsetInCU: 0x14000, offset: 0x14000, size: 0x8, addend: 0x0, symName: __ZNKSt3__16vectorINS0_IiNS_9allocatorIiEEEENS1_IS3_EEE11__recommendB8ue170006Em, symObjAddr: 0x6EC8, symBinAddr: 0x1000098A4, symSize: 0xB4 }
  - { offsetInCU: 0x1405F, offset: 0x1405F, size: 0x8, addend: 0x0, symName: __ZNKSt3__111__copy_loopINS_17_ClassicAlgPolicyEEclB8ue170006IPNS_6vectorIiNS_9allocatorIiEEEES8_S8_EENS_4pairIT_T1_EESA_T0_SB_, symObjAddr: 0x70F0, symBinAddr: 0x100009ACC, symSize: 0x88 }
  - { offsetInCU: 0x140CA, offset: 0x140CA, size: 0x8, addend: 0x0, symName: __ZNSt3__16vectorIiNS_9allocatorIiEEEaSB8ue170006ERKS3_, symObjAddr: 0x71A4, symBinAddr: 0x100009B80, symSize: 0x68 }
  - { offsetInCU: 0x14101, offset: 0x14101, size: 0x8, addend: 0x0, symName: __ZNSt3__16vectorIiNS_9allocatorIiEEE19__copy_assign_allocB8ue170006ERKS3_, symObjAddr: 0x720C, symBinAddr: 0x100009BE8, symSize: 0x2C }
  - { offsetInCU: 0x14136, offset: 0x14136, size: 0x8, addend: 0x0, symName: __ZNSt3__16vectorIiNS_9allocatorIiEEE6assignIPiLi0EEEvT_S6_, symObjAddr: 0x7238, symBinAddr: 0x100009C14, symSize: 0x5C }
  - { offsetInCU: 0x1418B, offset: 0x1418B, size: 0x8, addend: 0x0, symName: __ZNSt3__16vectorIiNS_9allocatorIiEEE19__copy_assign_allocB8ue170006ERKS3_NS_17integral_constantIbLb0EEE, symObjAddr: 0x7294, symBinAddr: 0x100009C70, symSize: 0x14 }
  - { offsetInCU: 0x141C9, offset: 0x141C9, size: 0x8, addend: 0x0, symName: __ZNSt3__16vectorIiNS_9allocatorIiEEE18__assign_with_sizeB8ue170006IPiS5_EEvT_T0_l, symObjAddr: 0x72A8, symBinAddr: 0x100009C84, symSize: 0x164 }
  - { offsetInCU: 0x14279, offset: 0x14279, size: 0x8, addend: 0x0, symName: __ZNSt3__16vectorIiNS_9allocatorIiEEE17__destruct_at_endB8ue170006EPi, symObjAddr: 0x74F0, symBinAddr: 0x100009ECC, symSize: 0x4C }
  - { offsetInCU: 0x142BD, offset: 0x142BD, size: 0x8, addend: 0x0, symName: __ZNSt3__16vectorIiNS_9allocatorIiEEE13__vdeallocateEv, symObjAddr: 0x753C, symBinAddr: 0x100009F18, symSize: 0x94 }
  - { offsetInCU: 0x142E5, offset: 0x142E5, size: 0x8, addend: 0x0, symName: __ZNKSt3__16vectorIiNS_9allocatorIiEEE11__recommendB8ue170006Em, symObjAddr: 0x75D0, symBinAddr: 0x100009FAC, symSize: 0xB4 }
  - { offsetInCU: 0x14344, offset: 0x14344, size: 0x8, addend: 0x0, symName: __ZNKSt3__114__copy_trivialclB8ue170006IiiLi0EEENS_4pairIPT_PT0_EES4_S4_S6_, symObjAddr: 0x77DC, symBinAddr: 0x10000A1B8, symSize: 0x48 }
  - { offsetInCU: 0x143AC, offset: 0x143AC, size: 0x8, addend: 0x0, symName: __ZNKSt3__16vectorIiNS_9allocatorIiEEE17__annotate_shrinkB8ue170006Em, symObjAddr: 0x79A8, symBinAddr: 0x10000A384, symSize: 0xB4 }
  - { offsetInCU: 0x143E1, offset: 0x143E1, size: 0x8, addend: 0x0, symName: __ZNSt3__16vectorIiNS_9allocatorIiEEE5clearB8ue170006Ev, symObjAddr: 0x7A5C, symBinAddr: 0x10000A438, symSize: 0x44 }
  - { offsetInCU: 0x14416, offset: 0x14416, size: 0x8, addend: 0x0, symName: __ZNKSt3__16vectorINS0_IiNS_9allocatorIiEEEENS1_IS3_EEE17__annotate_shrinkB8ue170006Em, symObjAddr: 0x7B48, symBinAddr: 0x10000A524, symSize: 0xD0 }
  - { offsetInCU: 0x1444B, offset: 0x1444B, size: 0x8, addend: 0x0, symName: __ZNSt3__16vectorINS0_IiNS_9allocatorIiEEEENS1_IS3_EEE5clearB8ue170006Ev, symObjAddr: 0x7C18, symBinAddr: 0x10000A5F4, symSize: 0x44 }
  - { offsetInCU: 0x14480, offset: 0x14480, size: 0x8, addend: 0x0, symName: __ZNSt3__111char_traitsIcE6lengthB8ue170006EPKc, symObjAddr: 0x7E78, symBinAddr: 0x10000A854, symSize: 0x48 }
  - { offsetInCU: 0x144C1, offset: 0x144C1, size: 0x8, addend: 0x0, symName: __ZNKSt3__113basic_ostreamIcNS_11char_traitsIcEEE6sentrycvbB8ue170006Ev, symObjAddr: 0x7EC0, symBinAddr: 0x10000A89C, symSize: 0x1C }
  - { offsetInCU: 0x144E7, offset: 0x144E7, size: 0x8, addend: 0x0, symName: __ZNSt3__119ostreambuf_iteratorIcNS_11char_traitsIcEEEC1B8ue170006ERNS_13basic_ostreamIcS2_EE, symObjAddr: 0x8124, symBinAddr: 0x10000AB00, symSize: 0x34 }
  - { offsetInCU: 0x1451F, offset: 0x1451F, size: 0x8, addend: 0x0, symName: __ZNKSt3__18ios_base5flagsB8ue170006Ev, symObjAddr: 0x8158, symBinAddr: 0x10000AB34, symSize: 0x18 }
  - { offsetInCU: 0x14547, offset: 0x14547, size: 0x8, addend: 0x0, symName: __ZNKSt3__19basic_iosIcNS_11char_traitsIcEEE4fillB8ue170006Ev, symObjAddr: 0x8170, symBinAddr: 0x10000AB4C, symSize: 0x64 }
  - { offsetInCU: 0x1456F, offset: 0x1456F, size: 0x8, addend: 0x0, symName: __ZNKSt3__119ostreambuf_iteratorIcNS_11char_traitsIcEEE6failedB8ue170006Ev, symObjAddr: 0x81D4, symBinAddr: 0x10000ABB0, symSize: 0x24 }
  - { offsetInCU: 0x14595, offset: 0x14595, size: 0x8, addend: 0x0, symName: __ZNSt3__19basic_iosIcNS_11char_traitsIcEEE8setstateB8ue170006Ej, symObjAddr: 0x81F8, symBinAddr: 0x10000ABD4, symSize: 0x2C }
  - { offsetInCU: 0x145CA, offset: 0x145CA, size: 0x8, addend: 0x0, symName: __ZNKSt3__18ios_base5widthB8ue170006Ev, symObjAddr: 0x8224, symBinAddr: 0x10000AC00, symSize: 0x18 }
  - { offsetInCU: 0x145F2, offset: 0x145F2, size: 0x8, addend: 0x0, symName: __ZNSt3__115basic_streambufIcNS_11char_traitsIcEEE5sputnB8ue170006EPKcl, symObjAddr: 0x823C, symBinAddr: 0x10000AC18, symSize: 0x3C }
  - { offsetInCU: 0x14634, offset: 0x14634, size: 0x8, addend: 0x0, symName: __ZNSt3__112basic_stringIcNS_11char_traitsIcEENS_9allocatorIcEEEC1B8ue170006Emc, symObjAddr: 0x8278, symBinAddr: 0x10000AC54, symSize: 0x3C }
  - { offsetInCU: 0x1467C, offset: 0x1467C, size: 0x8, addend: 0x0, symName: __ZNKSt3__112basic_stringIcNS_11char_traitsIcEENS_9allocatorIcEEE4dataB8ue170006Ev, symObjAddr: 0x82B4, symBinAddr: 0x10000AC90, symSize: 0x28 }
  - { offsetInCU: 0x146A2, offset: 0x146A2, size: 0x8, addend: 0x0, symName: __ZNSt3__18ios_base5widthB8ue170006El, symObjAddr: 0x82DC, symBinAddr: 0x10000ACB8, symSize: 0x2C }
  - { offsetInCU: 0x146E8, offset: 0x146E8, size: 0x8, addend: 0x0, symName: __ZNSt3__112basic_stringIcNS_11char_traitsIcEENS_9allocatorIcEEEC2B8ue170006Emc, symObjAddr: 0x8308, symBinAddr: 0x10000ACE4, symSize: 0x4C }
  - { offsetInCU: 0x14730, offset: 0x14730, size: 0x8, addend: 0x0, symName: __ZNSt3__117__compressed_pairINS_12basic_stringIcNS_11char_traitsIcEENS_9allocatorIcEEE5__repES5_EC1B8ue170006INS_18__default_init_tagESA_EEOT_OT0_, symObjAddr: 0x8354, symBinAddr: 0x10000AD30, symSize: 0x3C }
  - { offsetInCU: 0x14788, offset: 0x14788, size: 0x8, addend: 0x0, symName: __ZNSt3__117__compressed_pairINS_12basic_stringIcNS_11char_traitsIcEENS_9allocatorIcEEE5__repES5_EC2B8ue170006INS_18__default_init_tagESA_EEOT_OT0_, symObjAddr: 0x8390, symBinAddr: 0x10000AD6C, symSize: 0x3C }
  - { offsetInCU: 0x147E0, offset: 0x147E0, size: 0x8, addend: 0x0, symName: __ZNSt3__122__compressed_pair_elemINS_12basic_stringIcNS_11char_traitsIcEENS_9allocatorIcEEE5__repELi0ELb0EEC2B8ue170006ENS_18__default_init_tagE, symObjAddr: 0x83CC, symBinAddr: 0x10000ADA8, symSize: 0x14 }
  - { offsetInCU: 0x14814, offset: 0x14814, size: 0x8, addend: 0x0, symName: __ZNSt3__122__compressed_pair_elemINS_9allocatorIcEELi1ELb1EEC2B8ue170006ENS_18__default_init_tagE, symObjAddr: 0x83E0, symBinAddr: 0x10000ADBC, symSize: 0x2C }
  - { offsetInCU: 0x14848, offset: 0x14848, size: 0x8, addend: 0x0, symName: __ZNSt3__19allocatorIcEC2B8ue170006Ev, symObjAddr: 0x840C, symBinAddr: 0x10000ADE8, symSize: 0x2C }
  - { offsetInCU: 0x14872, offset: 0x14872, size: 0x8, addend: 0x0, symName: __ZNSt3__116__non_trivial_ifILb1ENS_9allocatorIcEEEC2B8ue170006Ev, symObjAddr: 0x8438, symBinAddr: 0x10000AE14, symSize: 0x14 }
  - { offsetInCU: 0x1489C, offset: 0x1489C, size: 0x8, addend: 0x0, symName: __ZNKSt3__112basic_stringIcNS_11char_traitsIcEENS_9allocatorIcEEE13__get_pointerB8ue170006Ev, symObjAddr: 0x8460, symBinAddr: 0x10000AE3C, symSize: 0x54 }
  - { offsetInCU: 0x148C2, offset: 0x148C2, size: 0x8, addend: 0x0, symName: __ZNKSt3__112basic_stringIcNS_11char_traitsIcEENS_9allocatorIcEEE9__is_longB8ue170006Ev, symObjAddr: 0x84B4, symBinAddr: 0x10000AE90, symSize: 0x74 }
  - { offsetInCU: 0x148E8, offset: 0x148E8, size: 0x8, addend: 0x0, symName: __ZNKSt3__112basic_stringIcNS_11char_traitsIcEENS_9allocatorIcEEE18__get_long_pointerB8ue170006Ev, symObjAddr: 0x8528, symBinAddr: 0x10000AF04, symSize: 0x28 }
  - { offsetInCU: 0x1490E, offset: 0x1490E, size: 0x8, addend: 0x0, symName: __ZNKSt3__112basic_stringIcNS_11char_traitsIcEENS_9allocatorIcEEE19__get_short_pointerB8ue170006Ev, symObjAddr: 0x8550, symBinAddr: 0x10000AF2C, symSize: 0x28 }
  - { offsetInCU: 0x14934, offset: 0x14934, size: 0x8, addend: 0x0, symName: __ZNKSt3__117__compressed_pairINS_12basic_stringIcNS_11char_traitsIcEENS_9allocatorIcEEE5__repES5_E5firstB8ue170006Ev, symObjAddr: 0x8578, symBinAddr: 0x10000AF54, symSize: 0x24 }
  - { offsetInCU: 0x1495A, offset: 0x1495A, size: 0x8, addend: 0x0, symName: __ZNKSt3__122__compressed_pair_elemINS_12basic_stringIcNS_11char_traitsIcEENS_9allocatorIcEEE5__repELi0ELb0EE5__getB8ue170006Ev, symObjAddr: 0x859C, symBinAddr: 0x10000AF78, symSize: 0x14 }
  - { offsetInCU: 0x14980, offset: 0x14980, size: 0x8, addend: 0x0, symName: __ZNSt3__114pointer_traitsIPKcE10pointer_toB8ue170006ERS1_, symObjAddr: 0x85B0, symBinAddr: 0x10000AF8C, symSize: 0x14 }
  - { offsetInCU: 0x149A3, offset: 0x149A3, size: 0x8, addend: 0x0, symName: __ZNSt3__119ostreambuf_iteratorIcNS_11char_traitsIcEEEC2B8ue170006ERNS_13basic_ostreamIcS2_EE, symObjAddr: 0x85C4, symBinAddr: 0x10000AFA0, symSize: 0x68 }
  - { offsetInCU: 0x149DB, offset: 0x149DB, size: 0x8, addend: 0x0, symName: __ZNKSt3__19basic_iosIcNS_11char_traitsIcEEE5rdbufB8ue170006Ev, symObjAddr: 0x862C, symBinAddr: 0x10000B008, symSize: 0x24 }
  - { offsetInCU: 0x14A03, offset: 0x14A03, size: 0x8, addend: 0x0, symName: __ZNKSt3__18ios_base5rdbufB8ue170006Ev, symObjAddr: 0x8650, symBinAddr: 0x10000B02C, symSize: 0x18 }
  - { offsetInCU: 0x14A29, offset: 0x14A29, size: 0x8, addend: 0x0, symName: __ZNSt3__111char_traitsIcE11eq_int_typeB8ue170006Eii, symObjAddr: 0x8668, symBinAddr: 0x10000B044, symSize: 0x28 }
  - { offsetInCU: 0x14A5C, offset: 0x14A5C, size: 0x8, addend: 0x0, symName: __ZNSt3__111char_traitsIcE3eofB8ue170006Ev, symObjAddr: 0x8690, symBinAddr: 0x10000B06C, symSize: 0x8 }
  - { offsetInCU: 0x14A70, offset: 0x14A70, size: 0x8, addend: 0x0, symName: __ZNKSt3__19basic_iosIcNS_11char_traitsIcEEE5widenB8ue170006Ec, symObjAddr: 0x8698, symBinAddr: 0x10000B074, symSize: 0x8C }
  - { offsetInCU: 0x14AD9, offset: 0x14AD9, size: 0x8, addend: 0x0, symName: __ZNKSt3__15ctypeIcE5widenB8ue170006Ec, symObjAddr: 0x8750, symBinAddr: 0x10000B12C, symSize: 0x38 }
  - { offsetInCU: 0x14B0E, offset: 0x14B0E, size: 0x8, addend: 0x0, symName: __ZNSt3__18ios_base8setstateB8ue170006Ej, symObjAddr: 0x8788, symBinAddr: 0x10000B164, symSize: 0x34 }
  - { offsetInCU: 0x14B45, offset: 0x14B45, size: 0x8, addend: 0x0, symName: __ZNSt3__16__treeINS_12__value_typeINS_6vectorINS2_IiNS_9allocatorIiEEEENS3_IS5_EEEEiEENS_19__map_value_compareIS7_S8_NS_4lessIS7_EELb1EEENS3_IS8_EEE5clearEv, symObjAddr: 0x87E0, symBinAddr: 0x10000B1BC, symSize: 0x74 }
...
